libdatachannel.so.0.21:_Z7setSSRCPN3rtc11Description5MediaEjPKcS4_S4_
libdatachannel.so.0.21:_ZN3rtc10InitLoggerEN4plog8SeverityEPNS0_9IAppenderE
libdatachannel.so.0.21:_ZN3rtc10InitLoggerENS_8LogLevelESt8functionIFvS0_NSt7__cxx1112basic_stringIcSt11char_traitsIcESaIcEEEEE
libdatachannel.so.0.21:_ZN3rtc10PliHandler8incomingERSt6vectorISt10shared_ptrINS_7MessageEESaIS4_EERKSt8functionIFvS4_EE
libdatachannel.so.0.21:_ZN3rtc10PliHandlerC1ESt8functionIFvvEE
libdatachannel.so.0.21:_ZN3rtc10PliHandlerC2ESt8functionIFvvEE
libdatachannel.so.0.21:_ZN3rtc10RtcpHeader13prepareHeaderEhht
libdatachannel.so.0.21:_ZN3rtc10RtcpHeader14setPayloadTypeEh
libdatachannel.so.0.21:_ZN3rtc10RtcpHeader14setReportCountEh
libdatachannel.so.0.21:_ZN3rtc10RtcpHeader9setLengthEt
libdatachannel.so.0.21:_ZN3rtc10to_variantB5cxx11EONS_7MessageE
libdatachannel.so.0.21:_ZN3rtc10to_variantB5cxx11ERKNS_7MessageE
libdatachannel.so.0.21:_ZN3rtc11DataChannel4sendEPKSt4bytem
libdatachannel.so.0.21:_ZN3rtc11DataChannel4sendESt7variantIJSt6vectorISt4byteSaIS3_EENSt7__cxx1112basic_stringIcSt11char_traitsIcESaIcEEEEE
libdatachannel.so.0.21:_ZN3rtc11DataChannel5closeEv
libdatachannel.so.0.21:_ZN3rtc11DataChannelC1ESt10shared_ptrINS_4impl11DataChannelEE
libdatachannel.so.0.21:_ZN3rtc11DataChannelC2ESt10shared_ptrINS_4impl11DataChannelEE
libdatachannel.so.0.21:_ZN3rtc11DataChannelD0Ev
libdatachannel.so.0.21:_ZN3rtc11DataChannelD1Ev
libdatachannel.so.0.21:_ZN3rtc11DataChannelD2Ev
libdatachannel.so.0.21:_ZN3rtc11Description10clearMediaEv
libdatachannel.so.0.21:_ZN3rtc11Description11Application11setSctpPortEt
libdatachannel.so.0.21:_ZN3rtc11Description11Application12hintSctpPortEt
libdatachannel.so.0.21:_ZN3rtc11Description11Application12parseSdpLineESt17basic_string_viewIcSt11char_traitsIcEE
libdatachannel.so.0.21:_ZN3rtc11Description11Application17setMaxMessageSizeEm
libdatachannel.so.0.21:_ZN3rtc11Description11ApplicationC1ENSt7__cxx1112basic_stringIcSt11char_traitsIcESaIcEEE
libdatachannel.so.0.21:_ZN3rtc11Description11ApplicationC1ERKNSt7__cxx1112basic_stringIcSt11char_traitsIcESaIcEEES7_
libdatachannel.so.0.21:_ZN3rtc11Description11ApplicationC2ENSt7__cxx1112basic_stringIcSt11char_traitsIcESaIcEEE
libdatachannel.so.0.21:_ZN3rtc11Description11ApplicationC2ERKNSt7__cxx1112basic_stringIcSt11char_traitsIcESaIcEEES7_
libdatachannel.so.0.21:_ZN3rtc11Description11applicationEv
libdatachannel.so.0.21:_ZN3rtc11Description11createEntryENSt7__cxx1112basic_stringIcSt11char_traitsIcESaIcEEES6_NS0_9DirectionE
libdatachannel.so.0.21:_ZN3rtc11Description12addAttributeENSt7__cxx1112basic_stringIcSt11char_traitsIcESaIcEEE
libdatachannel.so.0.21:_ZN3rtc11Description12addCandidateENS_9CandidateE
libdatachannel.so.0.21:_ZN3rtc11Description12addIceOptionENSt7__cxx1112basic_stringIcSt11char_traitsIcESaIcEEE
libdatachannel.so.0.21:_ZN3rtc11Description12stringToTypeERKNSt7__cxx1112basic_stringIcSt11char_traitsIcESaIcEEE
libdatachannel.so.0.21:_ZN3rtc11Description12typeToStringB5cxx11ENS0_4TypeE
libdatachannel.so.0.21:_ZN3rtc11Description13addCandidatesESt6vectorINS_9CandidateESaIS2_EE
libdatachannel.so.0.21:_ZN3rtc11Description13endCandidatesEv
libdatachannel.so.0.21:_ZN3rtc11Description14addApplicationENSt7__cxx1112basic_stringIcSt11char_traitsIcESaIcEEE
libdatachannel.so.0.21:_ZN3rtc11Description14setFingerprintENS_22CertificateFingerprintE
libdatachannel.so.0.21:_ZN3rtc11Description15removeAttributeERKNSt7__cxx1112basic_stringIcSt11char_traitsIcESaIcEEE
libdatachannel.so.0.21:_ZN3rtc11Description15removeIceOptionERKNSt7__cxx1112basic_stringIcSt11char_traitsIcESaIcEEE
libdatachannel.so.0.21:_ZN3rtc11Description17extractCandidatesEv
libdatachannel.so.0.21:_ZN3rtc11Description17removeApplicationEv
libdatachannel.so.0.21:_ZN3rtc11Description5Audio11addAACCodecEiSt8optionalINSt7__cxx1112basic_stringIcSt11char_traitsIcESaIcEEEE
libdatachannel.so.0.21:_ZN3rtc11Description5Audio12addOpusCodecEiSt8optionalINSt7__cxx1112basic_stringIcSt11char_traitsIcESaIcEEEE
libdatachannel.so.0.21:_ZN3rtc11Description5Audio12addPCMACodecEiSt8optionalINSt7__cxx1112basic_stringIcSt11char_traitsIcESaIcEEEE
libdatachannel.so.0.21:_ZN3rtc11Description5Audio12addPCMUCodecEiSt8optionalINSt7__cxx1112basic_stringIcSt11char_traitsIcESaIcEEEE
libdatachannel.so.0.21:_ZN3rtc11Description5Audio13addAudioCodecEiNSt7__cxx1112basic_stringIcSt11char_traitsIcESaIcEEESt8optionalIS7_E
libdatachannel.so.0.21:_ZN3rtc11Description5AudioC1ENSt7__cxx1112basic_stringIcSt11char_traitsIcESaIcEEENS0_9DirectionE
libdatachannel.so.0.21:_ZN3rtc11Description5AudioC2ENSt7__cxx1112basic_stringIcSt11char_traitsIcESaIcEEENS0_9DirectionE
libdatachannel.so.0.21:_ZN3rtc11Description5Entry11markRemovedEv
libdatachannel.so.0.21:_ZN3rtc11Description5Entry12addAttributeENSt7__cxx1112basic_stringIcSt11char_traitsIcESaIcEEE
libdatachannel.so.0.21:_ZN3rtc11Description5Entry12parseSdpLineESt17basic_string_viewIcSt11char_traitsIcEE
libdatachannel.so.0.21:_ZN3rtc11Description5Entry12removeExtMapEi
libdatachannel.so.0.21:_ZN3rtc11Description5Entry12setDirectionENS0_9DirectionE
libdatachannel.so.0.21:_ZN3rtc11Description5Entry15removeAttributeERKNSt7__cxx1112basic_stringIcSt11char_traitsIcESaIcEEE
libdatachannel.so.0.21:_ZN3rtc11Description5Entry6ExtMap14setDescriptionESt17basic_string_viewIcSt11char_traitsIcEE
libdatachannel.so.0.21:_ZN3rtc11Description5Entry6ExtMap7parseIdESt17basic_string_viewIcSt11char_traitsIcEE
libdatachannel.so.0.21:_ZN3rtc11Description5Entry6ExtMapC1ESt17basic_string_viewIcSt11char_traitsIcEE
libdatachannel.so.0.21:_ZN3rtc11Description5Entry6ExtMapC1EiNSt7__cxx1112basic_stringIcSt11char_traitsIcESaIcEEENS0_9DirectionE
libdatachannel.so.0.21:_ZN3rtc11Description5Entry6ExtMapC2ESt17basic_string_viewIcSt11char_traitsIcEE
libdatachannel.so.0.21:_ZN3rtc11Description5Entry6ExtMapC2EiNSt7__cxx1112basic_stringIcSt11char_traitsIcESaIcEEENS0_9DirectionE
libdatachannel.so.0.21:_ZN3rtc11Description5Entry6addRidENSt7__cxx1112basic_stringIcSt11char_traitsIcESaIcEEE
libdatachannel.so.0.21:_ZN3rtc11Description5Entry6extIdsEv
libdatachannel.so.0.21:_ZN3rtc11Description5Entry6extMapEi
libdatachannel.so.0.21:_ZN3rtc11Description5Entry9addExtMapENS1_6ExtMapE
libdatachannel.so.0.21:_ZN3rtc11Description5EntryC1ERKNSt7__cxx1112basic_stringIcSt11char_traitsIcESaIcEEES7_NS0_9DirectionE
libdatachannel.so.0.21:_ZN3rtc11Description5EntryC2ERKNSt7__cxx1112basic_stringIcSt11char_traitsIcESaIcEEES7_NS0_9DirectionE
libdatachannel.so.0.21:_ZN3rtc11Description5Media10clearSSRCsEv
libdatachannel.so.0.21:_ZN3rtc11Description5Media10removeSSRCEj
libdatachannel.so.0.21:_ZN3rtc11Description5Media10setBitrateEi
libdatachannel.so.0.21:_ZN3rtc11Description5Media11addRtxCodecEiij
libdatachannel.so.0.21:_ZN3rtc11Description5Media11replaceSSRCEjjSt8optionalINSt7__cxx1112basic_stringIcSt11char_traitsIcESaIcEEEES9_S9_
libdatachannel.so.0.21:_ZN3rtc11Description5Media12parseSdpLineESt17basic_string_viewIcSt11char_traitsIcEE
libdatachannel.so.0.21:_ZN3rtc11Description5Media12removeFormatERKNSt7__cxx1112basic_stringIcSt11char_traitsIcESaIcEEE
libdatachannel.so.0.21:_ZN3rtc11Description5Media12removeRtpMapEi
libdatachannel.so.0.21:_ZN3rtc11Description5Media6RtpMap11addFeedbackENSt7__cxx1112basic_stringIcSt11char_traitsIcESaIcEEE
libdatachannel.so.0.21:_ZN3rtc11Description5Media6RtpMap12addParameterENSt7__cxx1112basic_stringIcSt11char_traitsIcESaIcEEE
libdatachannel.so.0.21:_ZN3rtc11Description5Media6RtpMap14removeFeedbackERKNSt7__cxx1112basic_stringIcSt11char_traitsIcESaIcEEE
libdatachannel.so.0.21:_ZN3rtc11Description5Media6RtpMap14setDescriptionESt17basic_string_viewIcSt11char_traitsIcEE
libdatachannel.so.0.21:_ZN3rtc11Description5Media6RtpMap15removeParameterERKNSt7__cxx1112basic_stringIcSt11char_traitsIcESaIcEEE
libdatachannel.so.0.21:_ZN3rtc11Description5Media6RtpMap16parsePayloadTypeESt17basic_string_viewIcSt11char_traitsIcEE
libdatachannel.so.0.21:_ZN3rtc11Description5Media6RtpMapC1ESt17basic_string_viewIcSt11char_traitsIcEE
libdatachannel.so.0.21:_ZN3rtc11Description5Media6RtpMapC1Ei
libdatachannel.so.0.21:_ZN3rtc11Description5Media6RtpMapC2ESt17basic_string_viewIcSt11char_traitsIcEE
libdatachannel.so.0.21:_ZN3rtc11Description5Media6RtpMapC2Ei
libdatachannel.so.0.21:_ZN3rtc11Description5Media6rtpMapEi
libdatachannel.so.0.21:_ZN3rtc11Description5Media7addSSRCEjSt8optionalINSt7__cxx1112basic_stringIcSt11char_traitsIcESaIcEEEES9_S9_
libdatachannel.so.0.21:_ZN3rtc11Description5Media9addRtpMapENS1_6RtpMapE
libdatachannel.so.0.21:_ZN3rtc11Description5MediaC1ERKNSt7__cxx1112basic_stringIcSt11char_traitsIcESaIcEEE
libdatachannel.so.0.21:_ZN3rtc11Description5MediaC1ERKNSt7__cxx1112basic_stringIcSt11char_traitsIcESaIcEEES7_NS0_9DirectionE
libdatachannel.so.0.21:_ZN3rtc11Description5MediaC2ERKNSt7__cxx1112basic_stringIcSt11char_traitsIcESaIcEEE
libdatachannel.so.0.21:_ZN3rtc11Description5MediaC2ERKNSt7__cxx1112basic_stringIcSt11char_traitsIcESaIcEEES7_NS0_9DirectionE
libdatachannel.so.0.21:_ZN3rtc11Description5Video11addAV1CodecEiSt8optionalINSt7__cxx1112basic_stringIcSt11char_traitsIcESaIcEEEE
libdatachannel.so.0.21:_ZN3rtc11Description5Video11addVP8CodecEiSt8optionalINSt7__cxx1112basic_stringIcSt11char_traitsIcESaIcEEEE
libdatachannel.so.0.21:_ZN3rtc11Description5Video11addVP9CodecEiSt8optionalINSt7__cxx1112basic_stringIcSt11char_traitsIcESaIcEEEE
libdatachannel.so.0.21:_ZN3rtc11Description5Video12addH264CodecEiSt8optionalINSt7__cxx1112basic_stringIcSt11char_traitsIcESaIcEEEE
libdatachannel.so.0.21:_ZN3rtc11Description5Video12addH265CodecEiSt8optionalINSt7__cxx1112basic_stringIcSt11char_traitsIcESaIcEEEE
libdatachannel.so.0.21:_ZN3rtc11Description5Video13addVideoCodecEiNSt7__cxx1112basic_stringIcSt11char_traitsIcESaIcEEESt8optionalIS7_E
libdatachannel.so.0.21:_ZN3rtc11Description5VideoC1ENSt7__cxx1112basic_stringIcSt11char_traitsIcESaIcEEENS0_9DirectionE
libdatachannel.so.0.21:_ZN3rtc11Description5VideoC2ENSt7__cxx1112basic_stringIcSt11char_traitsIcESaIcEEENS0_9DirectionE
libdatachannel.so.0.21:_ZN3rtc11Description5mediaEj
libdatachannel.so.0.21:_ZN3rtc11Description8addAudioENSt7__cxx1112basic_stringIcSt11char_traitsIcESaIcEEENS0_9DirectionE
libdatachannel.so.0.21:_ZN3rtc11Description8addMediaENS0_11ApplicationE
libdatachannel.so.0.21:_ZN3rtc11Description8addMediaENS0_5MediaE
libdatachannel.so.0.21:_ZN3rtc11Description8addVideoENSt7__cxx1112basic_stringIcSt11char_traitsIcESaIcEEENS0_9DirectionE
libdatachannel.so.0.21:_ZN3rtc11Description8hintTypeENS0_4TypeE
libdatachannel.so.0.21:_ZN3rtc11DescriptionC1ERKNSt7__cxx1112basic_stringIcSt11char_traitsIcESaIcEEENS0_4TypeENS0_4RoleE
libdatachannel.so.0.21:_ZN3rtc11DescriptionC1ERKNSt7__cxx1112basic_stringIcSt11char_traitsIcESaIcEEES6_
libdatachannel.so.0.21:_ZN3rtc11DescriptionC2ERKNSt7__cxx1112basic_stringIcSt11char_traitsIcESaIcEEENS0_4TypeENS0_4RoleE
libdatachannel.so.0.21:_ZN3rtc11DescriptionC2ERKNSt7__cxx1112basic_stringIcSt11char_traitsIcESaIcEEES6_
libdatachannel.so.0.21:_ZN3rtc11ProxyServerC1ENS0_4TypeENSt7__cxx1112basic_stringIcSt11char_traitsIcESaIcEEEt
libdatachannel.so.0.21:_ZN3rtc11ProxyServerC1ENS0_4TypeENSt7__cxx1112basic_stringIcSt11char_traitsIcESaIcEEEtS7_S7_
libdatachannel.so.0.21:_ZN3rtc11ProxyServerC1ERKNSt7__cxx1112basic_stringIcSt11char_traitsIcESaIcEEE
libdatachannel.so.0.21:_ZN3rtc11ProxyServerC2ENS0_4TypeENSt7__cxx1112basic_stringIcSt11char_traitsIcESaIcEEEt
libdatachannel.so.0.21:_ZN3rtc11ProxyServerC2ENS0_4TypeENSt7__cxx1112basic_stringIcSt11char_traitsIcESaIcEEEtS7_S7_
libdatachannel.so.0.21:_ZN3rtc11ProxyServerC2ERKNSt7__cxx1112basic_stringIcSt11char_traitsIcESaIcEEE
libdatachannel.so.0.21:_ZN3rtc12H265NalUnits17generateFragmentsEt
libdatachannel.so.0.21:_ZN3rtc12MediaHandler10addToChainESt10shared_ptrIS0_E
libdatachannel.so.0.21:_ZN3rtc12MediaHandler10mediaChainERKNS_11Description5MediaE
libdatachannel.so.0.21:_ZN3rtc12MediaHandler13incomingChainERSt6vectorISt10shared_ptrINS_7MessageEESaIS4_EERKSt8functionIFvS4_EE
libdatachannel.so.0.21:_ZN3rtc12MediaHandler13outgoingChainERSt6vectorISt10shared_ptrINS_7MessageEESaIS4_EERKSt8functionIFvS4_EE
libdatachannel.so.0.21:_ZN3rtc12MediaHandler14requestBitrateEjRKSt8functionIFvSt10shared_ptrINS_7MessageEEEE
libdatachannel.so.0.21:_ZN3rtc12MediaHandler15requestKeyframeERKSt8functionIFvSt10shared_ptrINS_7MessageEEEE
libdatachannel.so.0.21:_ZN3rtc12MediaHandler4lastEv
libdatachannel.so.0.21:_ZN3rtc12MediaHandler4nextEv
libdatachannel.so.0.21:_ZN3rtc12MediaHandler7setNextESt10shared_ptrIS0_E
libdatachannel.so.0.21:_ZN3rtc12MediaHandlerC1Ev
libdatachannel.so.0.21:_ZN3rtc12MediaHandlerC2Ev
libdatachannel.so.0.21:_ZN3rtc12MediaHandlerD0Ev
libdatachannel.so.0.21:_ZN3rtc12MediaHandlerD1Ev
libdatachannel.so.0.21:_ZN3rtc12MediaHandlerD2Ev
libdatachannel.so.0.21:_ZN3rtc12RtcpFbHeader18setMediaSourceSSRCEj
libdatachannel.so.0.21:_ZN3rtc12RtcpFbHeader19setPacketSenderSSRCEj
libdatachannel.so.0.21:_ZN3rtc12RtcpNackPart18getSequenceNumbersEv
libdatachannel.so.0.21:_ZN3rtc12RtcpNackPart3blpEv
libdatachannel.so.0.21:_ZN3rtc12RtcpNackPart3pidEv
libdatachannel.so.0.21:_ZN3rtc12RtcpNackPart6setBlpEt
libdatachannel.so.0.21:_ZN3rtc12RtcpNackPart6setPidEt
libdatachannel.so.0.21:_ZN3rtc12RtcpSdesItem4SizeEh
libdatachannel.so.0.21:_ZN3rtc12RtcpSdesItem7setTextENSt7__cxx1112basic_stringIcSt11char_traitsIcESaIcEEE
libdatachannel.so.0.21:_ZN3rtc12make_messageEOSt6vectorISt4byteSaIS1_EENS_7Message4TypeEjSt10shared_ptrINS_11ReliabilityEES7_INS_9FrameInfoEE
libdatachannel.so.0.21:_ZN3rtc12make_messageESt7variantIJSt6vectorISt4byteSaIS2_EENSt7__cxx1112basic_stringIcSt11char_traitsIcESaIcEEEEE
libdatachannel.so.0.21:_ZN3rtc12make_messageEmNS_7Message4TypeEjSt10shared_ptrINS_11ReliabilityEE
libdatachannel.so.0.21:_ZN3rtc12make_messageEmSt10shared_ptrINS_7MessageEE
libdatachannel.so.0.21:_ZN3rtc13PacingHandler8outgoingERSt6vectorISt10shared_ptrINS_7MessageEESaIS4_EERKSt8functionIFvS4_EE
libdatachannel.so.0.21:_ZN3rtc13PacingHandler8scheduleERKSt8functionIFvSt10shared_ptrINS_7MessageEEEE
libdatachannel.so.0.21:_ZN3rtc13PacingHandlerC1EdNSt6chrono8durationIlSt5ratioILl1ELl1000EEEE
libdatachannel.so.0.21:_ZN3rtc13PacingHandlerC2EdNSt6chrono8durationIlSt5ratioILl1ELl1000EEEE
libdatachannel.so.0.21:_ZN3rtc13RtcpSdesChunk4SizeESt6vectorIhSaIhEE
libdatachannel.so.0.21:_ZN3rtc13RtcpSdesChunk7getItemEi
libdatachannel.so.0.21:_ZN3rtc13RtcpSdesChunk7setSSRCEj
libdatachannel.so.0.21:_ZN3rtc13RtpPacketizer5mediaERKNS_11Description5MediaE
libdatachannel.so.0.21:_ZN3rtc13RtpPacketizer8outgoingERSt6vectorISt10shared_ptrINS_7MessageEESaIS4_EERKSt8functionIFvS4_EE
libdatachannel.so.0.21:_ZN3rtc13RtpPacketizer9packetizeESt10shared_ptrISt6vectorISt4byteSaIS3_EEEb
libdatachannel.so.0.21:_ZN3rtc13RtpPacketizerC1ESt10shared_ptrINS_22RtpPacketizationConfigEE
libdatachannel.so.0.21:_ZN3rtc13RtpPacketizerC2ESt10shared_ptrINS_22RtpPacketizationConfigEE
libdatachannel.so.0.21:_ZN3rtc13RtpPacketizerD0Ev
libdatachannel.so.0.21:_ZN3rtc13RtpPacketizerD1Ev
libdatachannel.so.0.21:_ZN3rtc13RtpPacketizerD2Ev
libdatachannel.so.0.21:_ZN3rtc14PeerConnection10clearStatsEv
libdatachannel.so.0.21:_ZN3rtc14PeerConnection13bytesReceivedEv
libdatachannel.so.0.21:_ZN3rtc14PeerConnection13onDataChannelESt8functionIFvSt10shared_ptrINS_11DataChannelEEEE
libdatachannel.so.0.21:_ZN3rtc14PeerConnection13onStateChangeESt8functionIFvNS0_5StateEEE
libdatachannel.so.0.21:_ZN3rtc14PeerConnection14resetCallbacksEv
libdatachannel.so.0.21:_ZN3rtc14PeerConnection15getMediaHandlerEv
libdatachannel.so.0.21:_ZN3rtc14PeerConnection15setMediaHandlerESt10shared_ptrINS_12MediaHandlerEE
libdatachannel.so.0.21:_ZN3rtc14PeerConnection16onIceStateChangeESt8functionIFvNS0_8IceStateEEE
libdatachannel.so.0.21:_ZN3rtc14PeerConnection16onLocalCandidateESt8functionIFvNS_9CandidateEEE
libdatachannel.so.0.21:_ZN3rtc14PeerConnection17createDataChannelENSt7__cxx1112basic_stringIcSt11char_traitsIcESaIcEEENS_15DataChannelInitE
libdatachannel.so.0.21:_ZN3rtc14PeerConnection18addRemoteCandidateENS_9CandidateE
libdatachannel.so.0.21:_ZN3rtc14PeerConnection18onLocalDescriptionESt8functionIFvNS_11DescriptionEEE
libdatachannel.so.0.21:_ZN3rtc14PeerConnection19setLocalDescriptionENS_11Description4TypeE
libdatachannel.so.0.21:_ZN3rtc14PeerConnection20setRemoteDescriptionENS_11DescriptionE
libdatachannel.so.0.21:_ZN3rtc14PeerConnection21gatherLocalCandidatesESt6vectorINS_9IceServerESaIS2_EE
libdatachannel.so.0.21:_ZN3rtc14PeerConnection22onGatheringStateChangeESt8functionIFvNS0_14GatheringStateEEE
libdatachannel.so.0.21:_ZN3rtc14PeerConnection22onSignalingStateChangeESt8functionIFvNS0_14SignalingStateEEE
libdatachannel.so.0.21:_ZN3rtc14PeerConnection24getSelectedCandidatePairEPNS_9CandidateES2_
libdatachannel.so.0.21:_ZN3rtc14PeerConnection3rttEv
libdatachannel.so.0.21:_ZN3rtc14PeerConnection5closeEv
libdatachannel.so.0.21:_ZN3rtc14PeerConnection7onTrackESt8functionIFvSt10shared_ptrINS_5TrackEEEE
libdatachannel.so.0.21:_ZN3rtc14PeerConnection8addTrackENS_11Description5MediaE
libdatachannel.so.0.21:_ZN3rtc14PeerConnection9bytesSentEv
libdatachannel.so.0.21:_ZN3rtc14PeerConnectionC1ENS_13ConfigurationE
libdatachannel.so.0.21:_ZN3rtc14PeerConnectionC1Ev
libdatachannel.so.0.21:_ZN3rtc14PeerConnectionC2ENS_13ConfigurationE
libdatachannel.so.0.21:_ZN3rtc14PeerConnectionC2Ev
libdatachannel.so.0.21:_ZN3rtc14PeerConnectionD0Ev
libdatachannel.so.0.21:_ZN3rtc14PeerConnectionD1Ev
libdatachannel.so.0.21:_ZN3rtc14PeerConnectionD2Ev
libdatachannel.so.0.21:_ZN3rtc14RtcpSrReporter11addToReportEPNS_9RtpHeaderEj
libdatachannel.so.0.21:_ZN3rtc14RtcpSrReporter15getSenderReportEj
libdatachannel.so.0.21:_ZN3rtc14RtcpSrReporter16setNeedsToReportEv
libdatachannel.so.0.21:_ZN3rtc14RtcpSrReporter8outgoingERSt6vectorISt10shared_ptrINS_7MessageEESaIS4_EERKSt8functionIFvS4_EE
libdatachannel.so.0.21:_ZN3rtc14RtcpSrReporterC1ESt10shared_ptrINS_22RtpPacketizationConfigEE
libdatachannel.so.0.21:_ZN3rtc14RtcpSrReporterC2ESt10shared_ptrINS_22RtpPacketizationConfigEE
libdatachannel.so.0.21:_ZN3rtc15RtcpReportBlock10setNTPOfSREm
libdatachannel.so.0.21:_ZN3rtc15RtcpReportBlock13preparePacketEjjjttjmm
libdatachannel.so.0.21:_ZN3rtc15RtcpReportBlock14setPacketsLostEhj
libdatachannel.so.0.21:_ZN3rtc15RtcpReportBlock15setDelaySinceSREj
libdatachannel.so.0.21:_ZN3rtc15RtcpReportBlock7setSSRCEj
libdatachannel.so.0.21:_ZN3rtc15RtcpReportBlock8setSeqNoEtt
libdatachannel.so.0.21:_ZN3rtc15RtcpReportBlock9setJitterEj
libdatachannel.so.0.21:_ZN3rtc15RtpDepacketizer8incomingERSt6vectorISt10shared_ptrINS_7MessageEESaIS4_EERKSt8functionIFvS4_EE
libdatachannel.so.0.21:_ZN3rtc15SetSctpSettingsENS_12SctpSettingsE
libdatachannel.so.0.21:_ZN3rtc15WebSocketServer4stopEv
libdatachannel.so.0.21:_ZN3rtc15WebSocketServer8onClientESt8functionIFvSt10shared_ptrINS_9WebSocketEEEE
libdatachannel.so.0.21:_ZN3rtc15WebSocketServerC1ENS_28WebSocketServerConfigurationE
libdatachannel.so.0.21:_ZN3rtc15WebSocketServerC1Ev
libdatachannel.so.0.21:_ZN3rtc15WebSocketServerC2ENS_28WebSocketServerConfigurationE
libdatachannel.so.0.21:_ZN3rtc15WebSocketServerC2Ev
libdatachannel.so.0.21:_ZN3rtc15WebSocketServerD0Ev
libdatachannel.so.0.21:_ZN3rtc15WebSocketServerD1Ev
libdatachannel.so.0.21:_ZN3rtc15WebSocketServerD2Ev
libdatachannel.so.0.21:_ZN3rtc16AV1RtpPacketizer12packetizeObuESt10shared_ptrISt6vectorISt4byteSaIS3_EEEt
libdatachannel.so.0.21:_ZN3rtc16AV1RtpPacketizer8outgoingERSt6vectorISt10shared_ptrINS_7MessageEESaIS4_EERKSt8functionIFvS4_EE
libdatachannel.so.0.21:_ZN3rtc16AV1RtpPacketizerC1ENS0_13PacketizationESt10shared_ptrINS_22RtpPacketizationConfigEEt
libdatachannel.so.0.21:_ZN3rtc16AV1RtpPacketizerC2ENS0_13PacketizationESt10shared_ptrINS_22RtpPacketizationConfigEEt
libdatachannel.so.0.21:_ZN3rtc16NalUnitFragmentA13fragmentsFromESt10shared_ptrINS_7NalUnitEEt
libdatachannel.so.0.21:_ZN3rtc16NalUnitFragmentA15setFragmentTypeENS0_12FragmentTypeE
libdatachannel.so.0.21:_ZN3rtc16NalUnitFragmentAC1ENS0_12FragmentTypeEbhhSt6vectorISt4byteSaIS3_EE
libdatachannel.so.0.21:_ZN3rtc16NalUnitFragmentAC2ENS0_12FragmentTypeEbhhSt6vectorISt4byteSaIS3_EE
libdatachannel.so.0.21:_ZN3rtc17H264RtpPacketizer12splitMessageESt10shared_ptrISt6vectorISt4byteSaIS3_EEE
libdatachannel.so.0.21:_ZN3rtc17H264RtpPacketizer8outgoingERSt6vectorISt10shared_ptrINS_7MessageEESaIS4_EERKSt8functionIFvS4_EE
libdatachannel.so.0.21:_ZN3rtc17H264RtpPacketizerC1ENS_7NalUnit9SeparatorESt10shared_ptrINS_22RtpPacketizationConfigEEt
libdatachannel.so.0.21:_ZN3rtc17H264RtpPacketizerC1ESt10shared_ptrINS_22RtpPacketizationConfigEEt
libdatachannel.so.0.21:_ZN3rtc17H264RtpPacketizerC2ENS_7NalUnit9SeparatorESt10shared_ptrINS_22RtpPacketizationConfigEEt
libdatachannel.so.0.21:_ZN3rtc17H264RtpPacketizerC2ESt10shared_ptrINS_22RtpPacketizationConfigEEt
libdatachannel.so.0.21:_ZN3rtc17H265RtpPacketizer12splitMessageESt10shared_ptrISt6vectorISt4byteSaIS3_EEE
libdatachannel.so.0.21:_ZN3rtc17H265RtpPacketizer8outgoingERSt6vectorISt10shared_ptrINS_7MessageEESaIS4_EERKSt8functionIFvS4_EE
libdatachannel.so.0.21:_ZN3rtc17H265RtpPacketizerC1ENS_7NalUnit9SeparatorESt10shared_ptrINS_22RtpPacketizationConfigEEt
libdatachannel.so.0.21:_ZN3rtc17H265RtpPacketizerC1ESt10shared_ptrINS_22RtpPacketizationConfigEEt
libdatachannel.so.0.21:_ZN3rtc17H265RtpPacketizerC2ENS_7NalUnit9SeparatorESt10shared_ptrINS_22RtpPacketizationConfigEEt
libdatachannel.so.0.21:_ZN3rtc17H265RtpPacketizerC2ESt10shared_ptrINS_22RtpPacketizationConfigEEt
libdatachannel.so.0.21:_ZN3rtc17RtcpNackResponder7Storage3getEt
libdatachannel.so.0.21:_ZN3rtc17RtcpNackResponder7Storage4sizeEv
libdatachannel.so.0.21:_ZN3rtc17RtcpNackResponder7Storage5storeESt10shared_ptrISt6vectorISt4byteSaIS4_EEE
libdatachannel.so.0.21:_ZN3rtc17RtcpNackResponder7Storage7ElementC1ESt10shared_ptrISt6vectorISt4byteSaIS5_EEEtS3_IS2_E
libdatachannel.so.0.21:_ZN3rtc17RtcpNackResponder7Storage7ElementC2ESt10shared_ptrISt6vectorISt4byteSaIS5_EEEtS3_IS2_E
libdatachannel.so.0.21:_ZN3rtc17RtcpNackResponder7StorageC1Em
libdatachannel.so.0.21:_ZN3rtc17RtcpNackResponder7StorageC2Em
libdatachannel.so.0.21:_ZN3rtc17RtcpNackResponder8incomingERSt6vectorISt10shared_ptrINS_7MessageEESaIS4_EERKSt8functionIFvS4_EE
libdatachannel.so.0.21:_ZN3rtc17RtcpNackResponder8outgoingERSt6vectorISt10shared_ptrINS_7MessageEESaIS4_EERKSt8functionIFvS4_EE
libdatachannel.so.0.21:_ZN3rtc17RtcpNackResponderC1Em
libdatachannel.so.0.21:_ZN3rtc17RtcpNackResponderC2Em
libdatachannel.so.0.21:_ZN3rtc17message_size_funcERKSt10shared_ptrINS_7MessageEE
libdatachannel.so.0.21:_ZN3rtc18RtpExtensionHeader15setHeaderLengthEt
libdatachannel.so.0.21:_ZN3rtc18RtpExtensionHeader18writeOneByteHeaderEmhPKSt4bytem
libdatachannel.so.0.21:_ZN3rtc18RtpExtensionHeader20setProfileSpecificIdEt
libdatachannel.so.0.21:_ZN3rtc18RtpExtensionHeader28writeCurrentVideoOrientationEmhh
libdatachannel.so.0.21:_ZN3rtc18RtpExtensionHeader7getBodyEv
libdatachannel.so.0.21:_ZN3rtc18RtpExtensionHeader9clearBodyEv
libdatachannel.so.0.21:_ZN3rtc19H264RtpDepacketizer11buildFramesEN9__gnu_cxx17__normal_iteratorIPSt10shared_ptrINS_7MessageEESt6vectorIS5_SaIS5_EEEESA_hj
libdatachannel.so.0.21:_ZN3rtc19H264RtpDepacketizer12addSeparatorERSt6vectorISt4byteSaIS2_EE
libdatachannel.so.0.21:_ZN3rtc19H264RtpDepacketizer8incomingERSt6vectorISt10shared_ptrINS_7MessageEESaIS4_EERKSt8functionIFvS4_EE
libdatachannel.so.0.21:_ZN3rtc19H264RtpDepacketizerC1ENS_7NalUnit9SeparatorE
libdatachannel.so.0.21:_ZN3rtc19H264RtpDepacketizerC2ENS_7NalUnit9SeparatorE
libdatachannel.so.0.21:_ZN3rtc19H265NalUnitFragment13fragmentsFromESt10shared_ptrINS_11H265NalUnitEEt
libdatachannel.so.0.21:_ZN3rtc19H265NalUnitFragment15setFragmentTypeENS0_12FragmentTypeE
libdatachannel.so.0.21:_ZN3rtc19H265NalUnitFragmentC1ENS0_12FragmentTypeEbhhhSt6vectorISt4byteSaIS3_EE
libdatachannel.so.0.21:_ZN3rtc19H265NalUnitFragmentC2ENS0_12FragmentTypeEbhhhSt6vectorISt4byteSaIS3_EE
libdatachannel.so.0.21:_ZN3rtc20RtcpReceivingSession14requestBitrateEjRKSt8functionIFvSt10shared_ptrINS_7MessageEEEE
libdatachannel.so.0.21:_ZN3rtc20RtcpReceivingSession15requestKeyframeERKSt8functionIFvSt10shared_ptrINS_7MessageEEEE
libdatachannel.so.0.21:_ZN3rtc20RtcpReceivingSession6pushRRERKSt8functionIFvSt10shared_ptrINS_7MessageEEEEj
libdatachannel.so.0.21:_ZN3rtc20RtcpReceivingSession7pushPLIERKSt8functionIFvSt10shared_ptrINS_7MessageEEEE
libdatachannel.so.0.21:_ZN3rtc20RtcpReceivingSession8incomingERSt6vectorISt10shared_ptrINS_7MessageEESaIS4_EERKSt8functionIFvS4_EE
libdatachannel.so.0.21:_ZN3rtc20RtcpReceivingSession8pushREMBERKSt8functionIFvSt10shared_ptrINS_7MessageEEEEj
libdatachannel.so.0.21:_ZN3rtc22CertificateFingerprint13AlgorithmSizeENS0_9AlgorithmE
libdatachannel.so.0.21:_ZN3rtc22CertificateFingerprint19AlgorithmIdentifierB5cxx11ENS0_9AlgorithmE
libdatachannel.so.0.21:_ZN3rtc22RtpPacketizationConfig18secondsToTimestampEd
libdatachannel.so.0.21:_ZN3rtc22RtpPacketizationConfig18timestampToSecondsEj
libdatachannel.so.0.21:_ZN3rtc22RtpPacketizationConfig23getSecondsFromTimestampEjj
libdatachannel.so.0.21:_ZN3rtc22RtpPacketizationConfig23getTimestampFromSecondsEdj
libdatachannel.so.0.21:_ZN3rtc22RtpPacketizationConfigC1EjNSt7__cxx1112basic_stringIcSt11char_traitsIcESaIcEEEhjh
libdatachannel.so.0.21:_ZN3rtc22RtpPacketizationConfigC2EjNSt7__cxx1112basic_stringIcSt11char_traitsIcESaIcEEEhjh
libdatachannel.so.0.21:_ZN3rtc23extractTemporalUnitObusESt10shared_ptrISt6vectorISt4byteSaIS2_EEE
libdatachannel.so.0.21:_ZN3rtc28make_message_from_opaque_ptrEOPPv
libdatachannel.so.0.21:_ZN3rtc4impl10LogCounterC1EN4plog8SeverityERKNSt7__cxx1112basic_stringIcSt11char_traitsIcESaIcEEENSt6chrono8durationIlSt5ratioILl1ELl1EEEE
libdatachannel.so.0.21:_ZN3rtc4impl10LogCounterC2EN4plog8SeverityERKNSt7__cxx1112basic_stringIcSt11char_traitsIcESaIcEEENSt6chrono8durationIlSt5ratioILl1ELl1EEEE
libdatachannel.so.0.21:_ZN3rtc4impl10LogCounterppEi
libdatachannel.so.0.21:_ZN3rtc4impl10ThreadPool3runEv
libdatachannel.so.0.21:_ZN3rtc4impl10ThreadPool4joinEv
libdatachannel.so.0.21:_ZN3rtc4impl10ThreadPool5clearEv
libdatachannel.so.0.21:_ZN3rtc4impl10ThreadPool5spawnEi
libdatachannel.so.0.21:_ZN3rtc4impl10ThreadPool6runOneEv
libdatachannel.so.0.21:_ZN3rtc4impl10ThreadPool7dequeueEv
libdatachannel.so.0.21:_ZN3rtc4impl10ThreadPool8InstanceEv
libdatachannel.so.0.21:_ZN3rtc4impl10ThreadPoolC1Ev
libdatachannel.so.0.21:_ZN3rtc4impl10ThreadPoolC2Ev
libdatachannel.so.0.21:_ZN3rtc4impl10ThreadPoolD1Ev
libdatachannel.so.0.21:_ZN3rtc4impl10ThreadPoolD2Ev
libdatachannel.so.0.21:_ZN3rtc4impl11Certificate10FromStringENSt7__cxx1112basic_stringIcSt11char_traitsIcESaIcEEES7_
libdatachannel.so.0.21:_ZN3rtc4impl11Certificate8FromFileERKNSt7__cxx1112basic_stringIcSt11char_traitsIcESaIcEEES9_S9_
libdatachannel.so.0.21:_ZN3rtc4impl11Certificate8GenerateENS_15CertificateTypeERKNSt7__cxx1112basic_stringIcSt11char_traitsIcESaIcEEE
libdatachannel.so.0.21:_ZN3rtc4impl11CertificateC1ESt10shared_ptrI7x509_stES2_I11evp_pkey_stE
libdatachannel.so.0.21:_ZN3rtc4impl11CertificateC2ESt10shared_ptrI7x509_stES2_I11evp_pkey_stE
libdatachannel.so.0.21:_ZN3rtc4impl11DataChannel11remoteCloseEv
libdatachannel.so.0.21:_ZN3rtc4impl11DataChannel12assignStreamEt
libdatachannel.so.0.21:_ZN3rtc4impl11DataChannel13IsOpenMessageESt10shared_ptrINS_7MessageEE
libdatachannel.so.0.21:_ZN3rtc4impl11DataChannel18processOpenMessageESt10shared_ptrINS_7MessageEE
libdatachannel.so.0.21:_ZN3rtc4impl11DataChannel4openESt10shared_ptrINS0_13SctpTransportEE
libdatachannel.so.0.21:_ZN3rtc4impl11DataChannel4peekB5cxx11Ev
libdatachannel.so.0.21:_ZN3rtc4impl11DataChannel5closeEv
libdatachannel.so.0.21:_ZN3rtc4impl11DataChannel7receiveB5cxx11Ev
libdatachannel.so.0.21:_ZN3rtc4impl11DataChannel8incomingESt10shared_ptrINS_7MessageEE
libdatachannel.so.0.21:_ZN3rtc4impl11DataChannel8outgoingESt10shared_ptrINS_7MessageEE
libdatachannel.so.0.21:_ZN3rtc4impl11DataChannelC1ESt8weak_ptrINS0_14PeerConnectionEENSt7__cxx1112basic_stringIcSt11char_traitsIcESaIcEEESA_NS_11ReliabilityE
libdatachannel.so.0.21:_ZN3rtc4impl11DataChannelC2ESt8weak_ptrINS0_14PeerConnectionEENSt7__cxx1112basic_stringIcSt11char_traitsIcESaIcEEESA_NS_11ReliabilityE
libdatachannel.so.0.21:_ZN3rtc4impl11DataChannelD0Ev
libdatachannel.so.0.21:_ZN3rtc4impl11DataChannelD1Ev
libdatachannel.so.0.21:_ZN3rtc4impl11DataChannelD2Ev
libdatachannel.so.0.21:_ZN3rtc4impl11PollService3addEiNS1_6ParamsE
libdatachannel.so.0.21:_ZN3rtc4impl11PollService4joinEv
libdatachannel.so.0.21:_ZN3rtc4impl11PollService5startEv
libdatachannel.so.0.21:_ZN3rtc4impl11PollService6removeEi
libdatachannel.so.0.21:_ZN3rtc4impl11PollService7prepareERSt6vectorI6pollfdSaIS3_EERSt8optionalINSt6chrono10time_pointINS8_3_V212steady_clockENS8_8durationIlSt5ratioILl1ELl1000000000EEEEEEE
libdatachannel.so.0.21:_ZN3rtc4impl11PollService7processERSt6vectorI6pollfdSaIS3_EE
libdatachannel.so.0.21:_ZN3rtc4impl11PollService7runLoopEv
libdatachannel.so.0.21:_ZN3rtc4impl11PollService8InstanceEv
libdatachannel.so.0.21:_ZN3rtc4impl11PollServiceC1Ev
libdatachannel.so.0.21:_ZN3rtc4impl11PollServiceC2Ev
libdatachannel.so.0.21:_ZN3rtc4impl11PollServiceD1Ev
libdatachannel.so.0.21:_ZN3rtc4impl11PollServiceD2Ev
libdatachannel.so.0.21:_ZN3rtc4impl11WsHandshake11generateKeyB5cxx11Ev
libdatachannel.so.0.21:_ZN3rtc4impl11WsHandshake12RequestErrorC1ERKNSt7__cxx1112basic_stringIcSt11char_traitsIcESaIcEEEi
libdatachannel.so.0.21:_ZN3rtc4impl11WsHandshake12RequestErrorC2ERKNSt7__cxx1112basic_stringIcSt11char_traitsIcESaIcEEEi
libdatachannel.so.0.21:_ZN3rtc4impl11WsHandshake16computeAcceptKeyERKNSt7__cxx1112basic_stringIcSt11char_traitsIcESaIcEEE
libdatachannel.so.0.21:_ZN3rtc4impl11WsHandshake16parseHttpRequestEPKSt4bytem
libdatachannel.so.0.21:_ZN3rtc4impl11WsHandshake17generateHttpErrorB5cxx11Ei
libdatachannel.so.0.21:_ZN3rtc4impl11WsHandshake17parseHttpResponseEPKSt4bytem
libdatachannel.so.0.21:_ZN3rtc4impl11WsHandshake19generateHttpRequestB5cxx11Ev
libdatachannel.so.0.21:_ZN3rtc4impl11WsHandshake20generateHttpResponseB5cxx11Ev
libdatachannel.so.0.21:_ZN3rtc4impl11WsHandshake5ErrorC1ERKNSt7__cxx1112basic_stringIcSt11char_traitsIcESaIcEEE
libdatachannel.so.0.21:_ZN3rtc4impl11WsHandshake5ErrorC2ERKNSt7__cxx1112basic_stringIcSt11char_traitsIcESaIcEEE
libdatachannel.so.0.21:_ZN3rtc4impl11WsHandshakeC1ENSt7__cxx1112basic_stringIcSt11char_traitsIcESaIcEEES7_St6vectorIS7_SaIS7_EE
libdatachannel.so.0.21:_ZN3rtc4impl11WsHandshakeC1Ev
libdatachannel.so.0.21:_ZN3rtc4impl11WsHandshakeC2ENSt7__cxx1112basic_stringIcSt11char_traitsIcESaIcEEES7_St6vectorIS7_SaIS7_EE
libdatachannel.so.0.21:_ZN3rtc4impl11WsHandshakeC2Ev
libdatachannel.so.0.21:_ZN3rtc4impl11WsTransport10parseFrameEPSt4bytemRNS1_5FrameE
libdatachannel.so.0.21:_ZN3rtc4impl11WsTransport13sendHttpErrorEi
libdatachannel.so.0.21:_ZN3rtc4impl11WsTransport15sendHttpRequestEv
libdatachannel.so.0.21:_ZN3rtc4impl11WsTransport16sendHttpResponseEv
libdatachannel.so.0.21:_ZN3rtc4impl11WsTransport18addOutstandingPingEv
libdatachannel.so.0.21:_ZN3rtc4impl11WsTransport4sendESt10shared_ptrINS_7MessageEE
libdatachannel.so.0.21:_ZN3rtc4impl11WsTransport4stopEv
libdatachannel.so.0.21:_ZN3rtc4impl11WsTransport5closeEv
libdatachannel.so.0.21:_ZN3rtc4impl11WsTransport5startEv
libdatachannel.so.0.21:_ZN3rtc4impl11WsTransport8incomingESt10shared_ptrINS_7MessageEE
libdatachannel.so.0.21:_ZN3rtc4impl11WsTransport9recvFrameERKNS1_5FrameE
libdatachannel.so.0.21:_ZN3rtc4impl11WsTransport9sendFrameERKNS1_5FrameE
libdatachannel.so.0.21:_ZN3rtc4impl11WsTransportC1ESt7variantIJSt10shared_ptrINS0_12TcpTransportEES3_INS0_18HttpProxyTransportEES3_INS0_12TlsTransportEEEES3_INS0_11WsHandshakeEERKNS_22WebSocketConfigurationESt8functionIFvS3_INS_7MessageEEEESG_IFvNS0_9Transport5StateEEE
libdatachannel.so.0.21:_ZN3rtc4impl11WsTransportC2ESt7variantIJSt10shared_ptrINS0_12TcpTransportEES3_INS0_18HttpProxyTransportEES3_INS0_12TlsTransportEEEES3_INS0_11WsHandshakeEERKNS_22WebSocketConfigurationESt8functionIFvS3_INS_7MessageEEEESG_IFvNS0_9Transport5StateEEE
libdatachannel.so.0.21:_ZN3rtc4impl11WsTransportD0Ev
libdatachannel.so.0.21:_ZN3rtc4impl11WsTransportD1Ev
libdatachannel.so.0.21:_ZN3rtc4impl11WsTransportD2Ev
libdatachannel.so.0.21:_ZN3rtc4impl12IceTransport11LogCallbackE15juice_log_levelPKc
libdatachannel.so.0.21:_ZN3rtc4impl12IceTransport12RecvCallbackEP11juice_agentPKcmPv
libdatachannel.so.0.21:_ZN3rtc4impl12IceTransport12addIceServerENS_9IceServerE
libdatachannel.so.0.21:_ZN3rtc4impl12IceTransport16processCandidateERKNSt7__cxx1112basic_stringIcSt11char_traitsIcESaIcEEE
libdatachannel.so.0.21:_ZN3rtc4impl12IceTransport17CandidateCallbackEP11juice_agentPKcPv
libdatachannel.so.0.21:_ZN3rtc4impl12IceTransport18addRemoteCandidateERKNS_9CandidateE
libdatachannel.so.0.21:_ZN3rtc4impl12IceTransport18processStateChangeEj
libdatachannel.so.0.21:_ZN3rtc4impl12IceTransport19StateChangeCallbackEP11juice_agent11juice_statePv
libdatachannel.so.0.21:_ZN3rtc4impl12IceTransport20changeGatheringStateENS1_14GatheringStateE
libdatachannel.so.0.21:_ZN3rtc4impl12IceTransport20processGatheringDoneEv
libdatachannel.so.0.21:_ZN3rtc4impl12IceTransport20setRemoteDescriptionERKNS_11DescriptionE
libdatachannel.so.0.21:_ZN3rtc4impl12IceTransport21GatheringDoneCallbackEP11juice_agentPv
libdatachannel.so.0.21:_ZN3rtc4impl12IceTransport21gatherLocalCandidatesENSt7__cxx1112basic_stringIcSt11char_traitsIcESaIcEEESt6vectorINS_9IceServerESaIS9_EE
libdatachannel.so.0.21:_ZN3rtc4impl12IceTransport24getSelectedCandidatePairEPNS_9CandidateES3_
libdatachannel.so.0.21:_ZN3rtc4impl12IceTransport4InitEv
libdatachannel.so.0.21:_ZN3rtc4impl12IceTransport4sendESt10shared_ptrINS_7MessageEE
libdatachannel.so.0.21:_ZN3rtc4impl12IceTransport7CleanupEv
libdatachannel.so.0.21:_ZN3rtc4impl12IceTransport8outgoingESt10shared_ptrINS_7MessageEE
libdatachannel.so.0.21:_ZN3rtc4impl12IceTransportC1ERKNS_13ConfigurationESt8functionIFvRKNS_9CandidateEEES5_IFvNS0_9Transport5StateEEES5_IFvNS1_14GatheringStateEEE
libdatachannel.so.0.21:_ZN3rtc4impl12IceTransportC2ERKNS_13ConfigurationESt8functionIFvRKNS_9CandidateEEES5_IFvNS0_9Transport5StateEEES5_IFvNS1_14GatheringStateEEE
libdatachannel.so.0.21:_ZN3rtc4impl12IceTransportD0Ev
libdatachannel.so.0.21:_ZN3rtc4impl12IceTransportD1Ev
libdatachannel.so.0.21:_ZN3rtc4impl12IceTransportD2Ev
libdatachannel.so.0.21:_ZN3rtc4impl12TcpTransport12createSocketEPK8sockaddrj
libdatachannel.so.0.21:_ZN3rtc4impl12TcpTransport12trySendQueueEv
libdatachannel.so.0.21:_ZN3rtc4impl12TcpTransport14setReadTimeoutENSt6chrono8durationIlSt5ratioILl1ELl1000EEEE
libdatachannel.so.0.21:_ZN3rtc4impl12TcpTransport14trySendMessageERSt10shared_ptrINS_7MessageEE
libdatachannel.so.0.21:_ZN3rtc4impl12TcpTransport15configureSocketEv
libdatachannel.so.0.21:_ZN3rtc4impl12TcpTransport16onBufferedAmountESt8functionIFvmEE
libdatachannel.so.0.21:_ZN3rtc4impl12TcpTransport20updateBufferedAmountEl
libdatachannel.so.0.21:_ZN3rtc4impl12TcpTransport21triggerBufferedAmountEm
libdatachannel.so.0.21:_ZN3rtc4impl12TcpTransport4sendESt10shared_ptrINS_7MessageEE
libdatachannel.so.0.21:_ZN3rtc4impl12TcpTransport5closeEv
libdatachannel.so.0.21:_ZN3rtc4impl12TcpTransport5startEv
libdatachannel.so.0.21:_ZN3rtc4impl12TcpTransport7attemptEv
libdatachannel.so.0.21:_ZN3rtc4impl12TcpTransport7connectEv
libdatachannel.so.0.21:_ZN3rtc4impl12TcpTransport7processENS0_11PollService5EventE
libdatachannel.so.0.21:_ZN3rtc4impl12TcpTransport7resolveEv
libdatachannel.so.0.21:_ZN3rtc4impl12TcpTransport7setPollENS0_11PollService9DirectionE
libdatachannel.so.0.21:_ZN3rtc4impl12TcpTransport8incomingESt10shared_ptrINS_7MessageEE
libdatachannel.so.0.21:_ZN3rtc4impl12TcpTransport8outgoingESt10shared_ptrINS_7MessageEE
libdatachannel.so.0.21:_ZN3rtc4impl12TcpTransportC1ENSt7__cxx1112basic_stringIcSt11char_traitsIcESaIcEEES7_St8functionIFvNS0_9Transport5StateEEE
libdatachannel.so.0.21:_ZN3rtc4impl12TcpTransportC1EiSt8functionIFvNS0_9Transport5StateEEE
libdatachannel.so.0.21:_ZN3rtc4impl12TcpTransportC2ENSt7__cxx1112basic_stringIcSt11char_traitsIcESaIcEEES7_St8functionIFvNS0_9Transport5StateEEE
libdatachannel.so.0.21:_ZN3rtc4impl12TcpTransportC2EiSt8functionIFvNS0_9Transport5StateEEE
libdatachannel.so.0.21:_ZN3rtc4impl12TcpTransportD0Ev
libdatachannel.so.0.21:_ZN3rtc4impl12TcpTransportD1Ev
libdatachannel.so.0.21:_ZN3rtc4impl12TcpTransportD2Ev
libdatachannel.so.0.21:_ZN3rtc4impl12TlsTransport11enqueueRecvEv
libdatachannel.so.0.21:_ZN3rtc4impl12TlsTransport11flushOutputEv
libdatachannel.so.0.21:_ZN3rtc4impl12TlsTransport12InfoCallbackEPK6ssl_stii
libdatachannel.so.0.21:_ZN3rtc4impl12TlsTransport13postHandshakeEv
libdatachannel.so.0.21:_ZN3rtc4impl12TlsTransport4InitEv
libdatachannel.so.0.21:_ZN3rtc4impl12TlsTransport4sendESt10shared_ptrINS_7MessageEE
libdatachannel.so.0.21:_ZN3rtc4impl12TlsTransport4stopEv
libdatachannel.so.0.21:_ZN3rtc4impl12TlsTransport5startEv
libdatachannel.so.0.21:_ZN3rtc4impl12TlsTransport6doRecvEv
libdatachannel.so.0.21:_ZN3rtc4impl12TlsTransport7CleanupEv
libdatachannel.so.0.21:_ZN3rtc4impl12TlsTransport8incomingESt10shared_ptrINS_7MessageEE
libdatachannel.so.0.21:_ZN3rtc4impl12TlsTransport8outgoingESt10shared_ptrINS_7MessageEE
libdatachannel.so.0.21:_ZN3rtc4impl12TlsTransportC1ESt7variantIJSt10shared_ptrINS0_12TcpTransportEES3_INS0_18HttpProxyTransportEEEESt8optionalINSt7__cxx1112basic_stringIcSt11char_traitsIcESaIcEEEES3_INS0_11CertificateEESt8functionIFvNS0_9Transport5StateEEE
libdatachannel.so.0.21:_ZN3rtc4impl12TlsTransportC2ESt7variantIJSt10shared_ptrINS0_12TcpTransportEES3_INS0_18HttpProxyTransportEEEESt8optionalINSt7__cxx1112basic_stringIcSt11char_traitsIcESaIcEEEES3_INS0_11CertificateEESt8functionIFvNS0_9Transport5StateEEE
libdatachannel.so.0.21:_ZN3rtc4impl12TlsTransportD0Ev
libdatachannel.so.0.21:_ZN3rtc4impl12TlsTransportD1Ev
libdatachannel.so.0.21:_ZN3rtc4impl12TlsTransportD2Ev
libdatachannel.so.0.21:_ZN3rtc4impl13DtlsTransport11enqueueRecvEv
libdatachannel.so.0.21:_ZN3rtc4impl13DtlsTransport12BioMethodNewEP6bio_st
libdatachannel.so.0.21:_ZN3rtc4impl13DtlsTransport12InfoCallbackEPK6ssl_stii
libdatachannel.so.0.21:_ZN3rtc4impl13DtlsTransport12demuxMessageESt10shared_ptrINS_7MessageEE
libdatachannel.so.0.21:_ZN3rtc4impl13DtlsTransport13BioMethodCtrlEP6bio_stilPv
libdatachannel.so.0.21:_ZN3rtc4impl13DtlsTransport13BioMethodFreeEP6bio_st
libdatachannel.so.0.21:_ZN3rtc4impl13DtlsTransport13handleTimeoutEv
libdatachannel.so.0.21:_ZN3rtc4impl13DtlsTransport13postHandshakeEv
libdatachannel.so.0.21:_ZN3rtc4impl13DtlsTransport14BioMethodWriteEP6bio_stPKci
libdatachannel.so.0.21:_ZN3rtc4impl13DtlsTransport19CertificateCallbackEiP17x509_store_ctx_st
libdatachannel.so.0.21:_ZN3rtc4impl13DtlsTransport4InitEv
libdatachannel.so.0.21:_ZN3rtc4impl13DtlsTransport4sendESt10shared_ptrINS_7MessageEE
libdatachannel.so.0.21:_ZN3rtc4impl13DtlsTransport4stopEv
libdatachannel.so.0.21:_ZN3rtc4impl13DtlsTransport5startEv
libdatachannel.so.0.21:_ZN3rtc4impl13DtlsTransport6doRecvEv
libdatachannel.so.0.21:_ZN3rtc4impl13DtlsTransport7CleanupEv
libdatachannel.so.0.21:_ZN3rtc4impl13DtlsTransport8incomingESt10shared_ptrINS_7MessageEE
libdatachannel.so.0.21:_ZN3rtc4impl13DtlsTransport8outgoingESt10shared_ptrINS_7MessageEE
libdatachannel.so.0.21:_ZN3rtc4impl13DtlsTransportC1ESt10shared_ptrINS0_12IceTransportEES2_INS0_11CertificateEESt8optionalImENS_22CertificateFingerprint9AlgorithmESt8functionIFbRKNSt7__cxx1112basic_stringIcSt11char_traitsIcESaIcEEEEESB_IFvNS0_9Transport5StateEEE
libdatachannel.so.0.21:_ZN3rtc4impl13DtlsTransportC2ESt10shared_ptrINS0_12IceTransportEES2_INS0_11CertificateEESt8optionalImENS_22CertificateFingerprint9AlgorithmESt8functionIFbRKNSt7__cxx1112basic_stringIcSt11char_traitsIcESaIcEEEEESB_IFvNS0_9Transport5StateEEE
libdatachannel.so.0.21:_ZN3rtc4impl13DtlsTransportD0Ev
libdatachannel.so.0.21:_ZN3rtc4impl13DtlsTransportD1Ev
libdatachannel.so.0.21:_ZN3rtc4impl13DtlsTransportD2Ev
libdatachannel.so.0.21:_ZN3rtc4impl13SctpTransport10clearStatsEv
libdatachannel.so.0.21:_ZN3rtc4impl13SctpTransport11SetSettingsERKNS_12SctpSettingsE
libdatachannel.so.0.21:_ZN3rtc4impl13SctpTransport11closeStreamEj
libdatachannel.so.0.21:_ZN3rtc4impl13SctpTransport11enqueueRecvEv
libdatachannel.so.0.21:_ZN3rtc4impl13SctpTransport11handleWriteEPSt4bytemhh
libdatachannel.so.0.21:_ZN3rtc4impl13SctpTransport11processDataEOSt6vectorISt4byteSaIS3_EEtNS1_9PayloadIdE
libdatachannel.so.0.21:_ZN3rtc4impl13SctpTransport12enqueueFlushEv
libdatachannel.so.0.21:_ZN3rtc4impl13SctpTransport12handleUpcallEv
libdatachannel.so.0.21:_ZN3rtc4impl13SctpTransport12trySendQueueEv
libdatachannel.so.0.21:_ZN3rtc4impl13SctpTransport13DebugCallbackEPKcz
libdatachannel.so.0.21:_ZN3rtc4impl13SctpTransport13WriteCallbackEPvS2_mhh
libdatachannel.so.0.21:_ZN3rtc4impl13SctpTransport13bytesReceivedEv
libdatachannel.so.0.21:_ZN3rtc4impl13SctpTransport14UpcallCallbackEP6socketPvi
libdatachannel.so.0.21:_ZN3rtc4impl13SctpTransport14trySendMessageESt10shared_ptrINS_7MessageEE
libdatachannel.so.0.21:_ZN3rtc4impl13SctpTransport15getSockAddrConnEt
libdatachannel.so.0.21:_ZN3rtc4impl13SctpTransport16onBufferedAmountESt8functionIFvtmEE
libdatachannel.so.0.21:_ZN3rtc4impl13SctpTransport19processNotificationEPK17sctp_notificationm
libdatachannel.so.0.21:_ZN3rtc4impl13SctpTransport20updateBufferedAmountEtl
libdatachannel.so.0.21:_ZN3rtc4impl13SctpTransport21triggerBufferedAmountEtm
libdatachannel.so.0.21:_ZN3rtc4impl13SctpTransport3rttEv
libdatachannel.so.0.21:_ZN3rtc4impl13SctpTransport4InitEv
libdatachannel.so.0.21:_ZN3rtc4impl13SctpTransport4sendESt10shared_ptrINS_7MessageEE
libdatachannel.so.0.21:_ZN3rtc4impl13SctpTransport4stopEv
libdatachannel.so.0.21:_ZN3rtc4impl13SctpTransport5closeEv
libdatachannel.so.0.21:_ZN3rtc4impl13SctpTransport5flushEv
libdatachannel.so.0.21:_ZN3rtc4impl13SctpTransport5startEv
libdatachannel.so.0.21:_ZN3rtc4impl13SctpTransport6doRecvEv
libdatachannel.so.0.21:_ZN3rtc4impl13SctpTransport7CleanupEv
libdatachannel.so.0.21:_ZN3rtc4impl13SctpTransport7connectEv
libdatachannel.so.0.21:_ZN3rtc4impl13SctpTransport7doFlushEv
libdatachannel.so.0.21:_ZN3rtc4impl13SctpTransport8incomingESt10shared_ptrINS_7MessageEE
libdatachannel.so.0.21:_ZN3rtc4impl13SctpTransport8outgoingESt10shared_ptrINS_7MessageEE
libdatachannel.so.0.21:_ZN3rtc4impl13SctpTransport9bytesSentEv
libdatachannel.so.0.21:_ZN3rtc4impl13SctpTransport9sendResetEt
libdatachannel.so.0.21:_ZN3rtc4impl13SctpTransportC1ESt10shared_ptrINS0_9TransportEERKNS_13ConfigurationENS1_5PortsESt8functionIFvS2_INS_7MessageEEEES9_IFvtmEES9_IFvNS3_5StateEEE
libdatachannel.so.0.21:_ZN3rtc4impl13SctpTransportC2ESt10shared_ptrINS0_9TransportEERKNS_13ConfigurationENS1_5PortsESt8functionIFvS2_INS_7MessageEEEES9_IFvtmEES9_IFvNS3_5StateEEE
libdatachannel.so.0.21:_ZN3rtc4impl13SctpTransportD0Ev
libdatachannel.so.0.21:_ZN3rtc4impl13SctpTransportD1Ev
libdatachannel.so.0.21:_ZN3rtc4impl13SctpTransportD2Ev
libdatachannel.so.0.21:_ZN3rtc4impl13isHttpRequestEPKSt4bytem
libdatachannel.so.0.21:_ZN3rtc4impl14PeerConnection10openTracksEv
libdatachannel.so.0.21:_ZN3rtc4impl14PeerConnection11changeStateENS_14PeerConnection5StateE
libdatachannel.so.0.21:_ZN3rtc4impl14PeerConnection11closeTracksEv
libdatachannel.so.0.21:_ZN3rtc4impl14PeerConnection11remoteCloseEv
libdatachannel.so.0.21:_ZN3rtc4impl14PeerConnection12emplaceTrackENS_11Description5MediaE
libdatachannel.so.0.21:_ZN3rtc4impl14PeerConnection12forwardMediaESt10shared_ptrINS_7MessageEE
libdatachannel.so.0.21:_ZN3rtc4impl14PeerConnection12triggerTrackESt8weak_ptrINS0_5TrackEE
libdatachannel.so.0.21:_ZN3rtc4impl14PeerConnection13dispatchMediaESt10shared_ptrINS_7MessageEE
libdatachannel.so.0.21:_ZN3rtc4impl14PeerConnection13iterateTracksESt8functionIFvSt10shared_ptrINS0_5TrackEEEE
libdatachannel.so.0.21:_ZN3rtc4impl14PeerConnection14changeIceStateENS_14PeerConnection8IceStateE
libdatachannel.so.0.21:_ZN3rtc4impl14PeerConnection14forwardMessageESt10shared_ptrINS_7MessageEE
libdatachannel.so.0.21:_ZN3rtc4impl14PeerConnection14resetCallbacksEv
libdatachannel.so.0.21:_ZN3rtc4impl14PeerConnection15closeTransportsEv
libdatachannel.so.0.21:_ZN3rtc4impl14PeerConnection15findDataChannelEt
libdatachannel.so.0.21:_ZN3rtc4impl14PeerConnection15getMediaHandlerEv
libdatachannel.so.0.21:_ZN3rtc4impl14PeerConnection15setMediaHandlerESt10shared_ptrINS_12MediaHandlerEE
libdatachannel.so.0.21:_ZN3rtc4impl14PeerConnection16initIceTransportEv
libdatachannel.so.0.21:_ZN3rtc4impl14PeerConnection16openDataChannelsEv
libdatachannel.so.0.21:_ZN3rtc4impl14PeerConnection17closeDataChannelsEv
libdatachannel.so.0.21:_ZN3rtc4impl14PeerConnection17initDtlsTransportEv
libdatachannel.so.0.21:_ZN3rtc4impl14PeerConnection17initSctpTransportEv
libdatachannel.so.0.21:_ZN3rtc4impl14PeerConnection17removeDataChannelEt
libdatachannel.so.0.21:_ZN3rtc4impl14PeerConnection18assignDataChannelsEv
libdatachannel.so.0.21:_ZN3rtc4impl14PeerConnection18emplaceDataChannelENSt7__cxx1112basic_stringIcSt11char_traitsIcESaIcEEENS_15DataChannelInitE
libdatachannel.so.0.21:_ZN3rtc4impl14PeerConnection18endLocalCandidatesEv
libdatachannel.so.0.21:_ZN3rtc4impl14PeerConnection18flushPendingTracksEv
libdatachannel.so.0.21:_ZN3rtc4impl14PeerConnection18triggerDataChannelESt8weak_ptrINS0_11DataChannelEE
libdatachannel.so.0.21:_ZN3rtc4impl14PeerConnection19iterateDataChannelsESt8functionIFvSt10shared_ptrINS0_11DataChannelEEEE
libdatachannel.so.0.21:_ZN3rtc4impl14PeerConnection20changeGatheringStateENS_14PeerConnection14GatheringStateE
libdatachannel.so.0.21:_ZN3rtc4impl14PeerConnection20changeSignalingStateENS_14PeerConnection14SignalingStateE
libdatachannel.so.0.21:_ZN3rtc4impl14PeerConnection20triggerPendingTracksEv
libdatachannel.so.0.21:_ZN3rtc4impl14PeerConnection20updateTrackSsrcCacheERKNS_11DescriptionE
libdatachannel.so.0.21:_ZN3rtc4impl14PeerConnection21forwardBufferedAmountEtm
libdatachannel.so.0.21:_ZN3rtc4impl14PeerConnection21processLocalCandidateENS_9CandidateE
libdatachannel.so.0.21:_ZN3rtc4impl14PeerConnection22processRemoteCandidateENS_9CandidateE
libdatachannel.so.0.21:_ZN3rtc4impl14PeerConnection23processLocalDescriptionENS_11DescriptionE
libdatachannel.so.0.21:_ZN3rtc4impl14PeerConnection23remoteCloseDataChannelsEv
libdatachannel.so.0.21:_ZN3rtc4impl14PeerConnection24flushPendingDataChannelsEv
libdatachannel.so.0.21:_ZN3rtc4impl14PeerConnection24processRemoteDescriptionENS_11DescriptionE
libdatachannel.so.0.21:_ZN3rtc4impl14PeerConnection24rollbackLocalDescriptionEv
libdatachannel.so.0.21:_ZN3rtc4impl14PeerConnection25validateRemoteDescriptionERKNS_11DescriptionE
libdatachannel.so.0.21:_ZN3rtc4impl14PeerConnection26triggerPendingDataChannelsEv
libdatachannel.so.0.21:_ZN3rtc4impl14PeerConnection5closeEv
libdatachannel.so.0.21:_ZN3rtc4impl14PeerConnection7triggerIJNS_11DescriptionEEEEvPNS_21synchronized_callbackIJDpT_EEES6_
libdatachannel.so.0.21:_ZN3rtc4impl14PeerConnection7triggerIJNS_14PeerConnection14GatheringStateEEEEvPNS_21synchronized_callbackIJDpT_EEES7_
libdatachannel.so.0.21:_ZN3rtc4impl14PeerConnection7triggerIJNS_14PeerConnection14SignalingStateEEEEvPNS_21synchronized_callbackIJDpT_EEES7_
libdatachannel.so.0.21:_ZN3rtc4impl14PeerConnection7triggerIJNS_14PeerConnection5StateEEEEvPNS_21synchronized_callbackIJDpT_EEES7_
libdatachannel.so.0.21:_ZN3rtc4impl14PeerConnection7triggerIJNS_14PeerConnection8IceStateEEEEvPNS_21synchronized_callbackIJDpT_EEES7_
libdatachannel.so.0.21:_ZN3rtc4impl14PeerConnection7triggerIJNS_9CandidateEEEEvPNS_21synchronized_callbackIJDpT_EEES6_
libdatachannel.so.0.21:_ZN3rtc4impl14PeerConnectionC1ENS_13ConfigurationE
libdatachannel.so.0.21:_ZN3rtc4impl14PeerConnectionC2ENS_13ConfigurationE
libdatachannel.so.0.21:_ZN3rtc4impl14PeerConnectionD1Ev
libdatachannel.so.0.21:_ZN3rtc4impl14PeerConnectionD2Ev
libdatachannel.so.0.21:_ZN3rtc4impl14parseHttpLinesEPKSt4bytemRNSt7__cxx114listINS4_12basic_stringIcSt11char_traitsIcESaIcEEESaISA_EEE
libdatachannel.so.0.21:_ZN3rtc4impl15PollInterrupter7prepareER6pollfd
libdatachannel.so.0.21:_ZN3rtc4impl15PollInterrupter7processER6pollfd
libdatachannel.so.0.21:_ZN3rtc4impl15PollInterrupter9interruptEv
libdatachannel.so.0.21:_ZN3rtc4impl15PollInterrupterC1Ev
libdatachannel.so.0.21:_ZN3rtc4impl15PollInterrupterC2Ev
libdatachannel.so.0.21:_ZN3rtc4impl15PollInterrupterD1Ev
libdatachannel.so.0.21:_ZN3rtc4impl15PollInterrupterD2Ev
libdatachannel.so.0.21:_ZN3rtc4impl15WebSocketServer4stopEv
libdatachannel.so.0.21:_ZN3rtc4impl15WebSocketServer7runLoopEv
libdatachannel.so.0.21:_ZN3rtc4impl15WebSocketServerC1ENS_28WebSocketServerConfigurationE
libdatachannel.so.0.21:_ZN3rtc4impl15WebSocketServerC2ENS_28WebSocketServerConfigurationE
libdatachannel.so.0.21:_ZN3rtc4impl15WebSocketServerD1Ev
libdatachannel.so.0.21:_ZN3rtc4impl15WebSocketServerD2Ev
libdatachannel.so.0.21:_ZN3rtc4impl16make_certificateENS_15CertificateTypeE
libdatachannel.so.0.21:_ZN3rtc4impl16make_fingerprintB5cxx11EP7x509_stNS_22CertificateFingerprint9AlgorithmE
libdatachannel.so.0.21:_ZN3rtc4impl16parseHttpHeadersERKNSt7__cxx114listINS1_12basic_stringIcSt11char_traitsIcESaIcEEESaIS7_EEE
libdatachannel.so.0.21:_ZN3rtc4impl17DtlsSrtpTransport12demuxMessageESt10shared_ptrINS_7MessageEE
libdatachannel.so.0.21:_ZN3rtc4impl17DtlsSrtpTransport13postHandshakeEv
libdatachannel.so.0.21:_ZN3rtc4impl17DtlsSrtpTransport14IsGcmSupportedEv
libdatachannel.so.0.21:_ZN3rtc4impl17DtlsSrtpTransport24getProfileParamsFromNameESt17basic_string_viewIcSt11char_traitsIcEE
libdatachannel.so.0.21:_ZN3rtc4impl17DtlsSrtpTransport4InitEv
libdatachannel.so.0.21:_ZN3rtc4impl17DtlsSrtpTransport7CleanupEv
libdatachannel.so.0.21:_ZN3rtc4impl17DtlsSrtpTransport9recvMediaESt10shared_ptrINS_7MessageEE
libdatachannel.so.0.21:_ZN3rtc4impl17DtlsSrtpTransport9sendMediaESt10shared_ptrINS_7MessageEE
libdatachannel.so.0.21:_ZN3rtc4impl17DtlsSrtpTransportC1ESt10shared_ptrINS0_12IceTransportEES2_INS0_11CertificateEESt8optionalImENS_22CertificateFingerprint9AlgorithmESt8functionIFbRKNSt7__cxx1112basic_stringIcSt11char_traitsIcESaIcEEEEESB_IFvS2_INS_7MessageEEEESB_IFvNS0_9Transport5StateEEE
libdatachannel.so.0.21:_ZN3rtc4impl17DtlsSrtpTransportC2ESt10shared_ptrINS0_12IceTransportEES2_INS0_11CertificateEESt8optionalImENS_22CertificateFingerprint9AlgorithmESt8functionIFbRKNSt7__cxx1112basic_stringIcSt11char_traitsIcESaIcEEEEESB_IFvS2_INS_7MessageEEEESB_IFvNS0_9Transport5StateEEE
libdatachannel.so.0.21:_ZN3rtc4impl17DtlsSrtpTransportD0Ev
libdatachannel.so.0.21:_ZN3rtc4impl17DtlsSrtpTransportD1Ev
libdatachannel.so.0.21:_ZN3rtc4impl17DtlsSrtpTransportD2Ev
libdatachannel.so.0.21:_ZN3rtc4impl17TearDownProcessor8InstanceEv
libdatachannel.so.0.21:_ZN3rtc4impl17TearDownProcessorC1Ev
libdatachannel.so.0.21:_ZN3rtc4impl17TearDownProcessorC2Ev
libdatachannel.so.0.21:_ZN3rtc4impl17TearDownProcessorD0Ev
libdatachannel.so.0.21:_ZN3rtc4impl17TearDownProcessorD1Ev
libdatachannel.so.0.21:_ZN3rtc4impl17TearDownProcessorD2Ev
libdatachannel.so.0.21:_ZN3rtc4impl18HttpProxyTransport15sendHttpRequestEv
libdatachannel.so.0.21:_ZN3rtc4impl18HttpProxyTransport17parseHttpResponseEPSt4bytem
libdatachannel.so.0.21:_ZN3rtc4impl18HttpProxyTransport19generateHttpRequestB5cxx11Ev
libdatachannel.so.0.21:_ZN3rtc4impl18HttpProxyTransport4sendESt10shared_ptrINS_7MessageEE
libdatachannel.so.0.21:_ZN3rtc4impl18HttpProxyTransport4stopEv
libdatachannel.so.0.21:_ZN3rtc4impl18HttpProxyTransport5startEv
libdatachannel.so.0.21:_ZN3rtc4impl18HttpProxyTransport8incomingESt10shared_ptrINS_7MessageEE
libdatachannel.so.0.21:_ZN3rtc4impl18HttpProxyTransportC1ESt10shared_ptrINS0_12TcpTransportEENSt7__cxx1112basic_stringIcSt11char_traitsIcESaIcEEESA_St8functionIFvNS0_9Transport5StateEEE
libdatachannel.so.0.21:_ZN3rtc4impl18HttpProxyTransportC2ESt10shared_ptrINS0_12TcpTransportEENSt7__cxx1112basic_stringIcSt11char_traitsIcESaIcEEESA_St8functionIFvNS0_9Transport5StateEEE
libdatachannel.so.0.21:_ZN3rtc4impl18HttpProxyTransportD0Ev
libdatachannel.so.0.21:_ZN3rtc4impl18HttpProxyTransportD1Ev
libdatachannel.so.0.21:_ZN3rtc4impl18HttpProxyTransportD2Ev
libdatachannel.so.0.21:_ZN3rtc4impl19IncomingDataChannel18processOpenMessageESt10shared_ptrINS_7MessageEE
libdatachannel.so.0.21:_ZN3rtc4impl19IncomingDataChannel4openESt10shared_ptrINS0_13SctpTransportEE
libdatachannel.so.0.21:_ZN3rtc4impl19IncomingDataChannelC1ESt8weak_ptrINS0_14PeerConnectionEES2_INS0_13SctpTransportEE
libdatachannel.so.0.21:_ZN3rtc4impl19IncomingDataChannelC2ESt8weak_ptrINS0_14PeerConnectionEES2_INS0_13SctpTransportEE
libdatachannel.so.0.21:_ZN3rtc4impl19IncomingDataChannelD0Ev
libdatachannel.so.0.21:_ZN3rtc4impl19IncomingDataChannelD1Ev
libdatachannel.so.0.21:_ZN3rtc4impl19IncomingDataChannelD2Ev
libdatachannel.so.0.21:_ZN3rtc4impl19OutgoingDataChannel18processOpenMessageESt10shared_ptrINS_7MessageEE
libdatachannel.so.0.21:_ZN3rtc4impl19OutgoingDataChannel4openESt10shared_ptrINS0_13SctpTransportEE
libdatachannel.so.0.21:_ZN3rtc4impl19OutgoingDataChannelC1ESt8weak_ptrINS0_14PeerConnectionEENSt7__cxx1112basic_stringIcSt11char_traitsIcESaIcEEESA_NS_11ReliabilityE
libdatachannel.so.0.21:_ZN3rtc4impl19OutgoingDataChannelC2ESt8weak_ptrINS0_14PeerConnectionEENSt7__cxx1112basic_stringIcSt11char_traitsIcESaIcEEESA_NS_11ReliabilityE
libdatachannel.so.0.21:_ZN3rtc4impl19OutgoingDataChannelD0Ev
libdatachannel.so.0.21:_ZN3rtc4impl19OutgoingDataChannelD1Ev
libdatachannel.so.0.21:_ZN3rtc4impl19OutgoingDataChannelD2Ev
libdatachannel.so.0.21:_ZN3rtc4impl20VerifiedTlsTransportC1ESt7variantIJSt10shared_ptrINS0_12TcpTransportEES3_INS0_18HttpProxyTransportEEEENSt7__cxx1112basic_stringIcSt11char_traitsIcESaIcEEES3_INS0_11CertificateEESt8functionIFvNS0_9Transport5StateEEESt8optionalISE_E
libdatachannel.so.0.21:_ZN3rtc4impl20VerifiedTlsTransportC2ESt7variantIJSt10shared_ptrINS0_12TcpTransportEES3_INS0_18HttpProxyTransportEEEENSt7__cxx1112basic_stringIcSt11char_traitsIcESaIcEEES3_INS0_11CertificateEESt8functionIFvNS0_9Transport5StateEEESt8optionalISE_E
libdatachannel.so.0.21:_ZN3rtc4impl20VerifiedTlsTransportD0Ev
libdatachannel.so.0.21:_ZN3rtc4impl20VerifiedTlsTransportD1Ev
libdatachannel.so.0.21:_ZN3rtc4impl20VerifiedTlsTransportD2Ev
libdatachannel.so.0.21:_ZN3rtc4impl4Init15setSctpSettingsENS_12SctpSettingsE
libdatachannel.so.0.21:_ZN3rtc4impl4Init5tokenEv
libdatachannel.so.0.21:_ZN3rtc4impl4Init6doInitEv
libdatachannel.so.0.21:_ZN3rtc4impl4Init7cleanupEv
libdatachannel.so.0.21:_ZN3rtc4impl4Init7preloadEv
libdatachannel.so.0.21:_ZN3rtc4impl4Init8InstanceEv
libdatachannel.so.0.21:_ZN3rtc4impl4Init9doCleanupEv
libdatachannel.so.0.21:_ZN3rtc4impl4InitC1Ev
libdatachannel.so.0.21:_ZN3rtc4impl4InitC2Ev
libdatachannel.so.0.21:_ZN3rtc4impl4InitD1Ev
libdatachannel.so.0.21:_ZN3rtc4impl4InitD2Ev
libdatachannel.so.0.21:_ZN3rtc4impl4Sha1ERKNSt7__cxx1112basic_stringIcSt11char_traitsIcESaIcEEE
libdatachannel.so.0.21:_ZN3rtc4impl4Sha1ERKSt6vectorISt4byteSaIS2_EE
libdatachannel.so.0.21:_ZN3rtc4impl5Track13transportSendESt10shared_ptrINS_7MessageEE
libdatachannel.so.0.21:_ZN3rtc4impl5Track14setDescriptionENS_11Description5MediaE
libdatachannel.so.0.21:_ZN3rtc4impl5Track15getMediaHandlerEv
libdatachannel.so.0.21:_ZN3rtc4impl5Track15setMediaHandlerESt10shared_ptrINS_12MediaHandlerEE
libdatachannel.so.0.21:_ZN3rtc4impl5Track20flushPendingMessagesEv
libdatachannel.so.0.21:_ZN3rtc4impl5Track21trackMessageToVariantB5cxx11ESt10shared_ptrINS_7MessageEE
libdatachannel.so.0.21:_ZN3rtc4impl5Track4openESt10shared_ptrINS0_17DtlsSrtpTransportEE
libdatachannel.so.0.21:_ZN3rtc4impl5Track4peekB5cxx11Ev
libdatachannel.so.0.21:_ZN3rtc4impl5Track5closeEv
libdatachannel.so.0.21:_ZN3rtc4impl5Track7onFrameESt8functionIFvSt6vectorISt4byteSaIS4_EENS_9FrameInfoEEE
libdatachannel.so.0.21:_ZN3rtc4impl5Track7receiveB5cxx11Ev
libdatachannel.so.0.21:_ZN3rtc4impl5Track8incomingESt10shared_ptrINS_7MessageEE
libdatachannel.so.0.21:_ZN3rtc4impl5Track8outgoingESt10shared_ptrINS_7MessageEE
libdatachannel.so.0.21:_ZN3rtc4impl5TrackC1ESt8weak_ptrINS0_14PeerConnectionEENS_11Description5MediaE
libdatachannel.so.0.21:_ZN3rtc4impl5TrackC2ESt8weak_ptrINS0_14PeerConnectionEENS_11Description5MediaE
libdatachannel.so.0.21:_ZN3rtc4impl5TrackD1Ev
libdatachannel.so.0.21:_ZN3rtc4impl5TrackD2Ev
libdatachannel.so.0.21:_ZN3rtc4impl5utils10url_decodeERKNSt7__cxx1112basic_stringIcSt11char_traitsIcESaIcEEE
libdatachannel.so.0.21:_ZN3rtc4impl5utils11random_seedEv
libdatachannel.so.0.21:_ZN3rtc4impl5utils11this_thread8set_nameERKNSt7__cxx1112basic_stringIcSt11char_traitsIcESaIcEEE
libdatachannel.so.0.21:_ZN3rtc4impl5utils13base64_encodeB5cxx11ERKSt6vectorISt4byteSaIS3_EE
libdatachannel.so.0.21:_ZN3rtc4impl5utils7explodeERKNSt7__cxx1112basic_stringIcSt11char_traitsIcESaIcEEEc
libdatachannel.so.0.21:_ZN3rtc4impl5utils7implodeERKSt6vectorINSt7__cxx1112basic_stringIcSt11char_traitsIcESaIcEEESaIS8_EEc
libdatachannel.so.0.21:_ZN3rtc4impl7Channel11triggerOpenEv
libdatachannel.so.0.21:_ZN3rtc4impl7Channel12triggerErrorENSt7__cxx1112basic_stringIcSt11char_traitsIcESaIcEEE
libdatachannel.so.0.21:_ZN3rtc4impl7Channel13triggerClosedEv
libdatachannel.so.0.21:_ZN3rtc4impl7Channel14resetCallbacksEv
libdatachannel.so.0.21:_ZN3rtc4impl7Channel16triggerAvailableEm
libdatachannel.so.0.21:_ZN3rtc4impl7Channel17resetOpenCallbackEv
libdatachannel.so.0.21:_ZN3rtc4impl7Channel20flushPendingMessagesEv
libdatachannel.so.0.21:_ZN3rtc4impl7Channel21triggerBufferedAmountEm
libdatachannel.so.0.21:_ZN3rtc4impl9Processor4joinEv
libdatachannel.so.0.21:_ZN3rtc4impl9Processor8scheduleEv
libdatachannel.so.0.21:_ZN3rtc4impl9ProcessorC1Em
libdatachannel.so.0.21:_ZN3rtc4impl9ProcessorC2Em
libdatachannel.so.0.21:_ZN3rtc4impl9ProcessorD0Ev
libdatachannel.so.0.21:_ZN3rtc4impl9ProcessorD1Ev
libdatachannel.so.0.21:_ZN3rtc4impl9ProcessorD2Ev
libdatachannel.so.0.21:_ZN3rtc4impl9TcpServer5closeEv
libdatachannel.so.0.21:_ZN3rtc4impl9TcpServer6acceptEv
libdatachannel.so.0.21:_ZN3rtc4impl9TcpServer6listenEtPKc
libdatachannel.so.0.21:_ZN3rtc4impl9TcpServerC1EtPKc
libdatachannel.so.0.21:_ZN3rtc4impl9TcpServerC2EtPKc
libdatachannel.so.0.21:_ZN3rtc4impl9TcpServerD1Ev
libdatachannel.so.0.21:_ZN3rtc4impl9TcpServerD2Ev
libdatachannel.so.0.21:_ZN3rtc4impl9Transport11changeStateENS1_5StateE
libdatachannel.so.0.21:_ZN3rtc4impl9Transport13onStateChangeESt8functionIFvNS1_5StateEEE
libdatachannel.so.0.21:_ZN3rtc4impl9Transport16registerIncomingEv
libdatachannel.so.0.21:_ZN3rtc4impl9Transport18unregisterIncomingEv
libdatachannel.so.0.21:_ZN3rtc4impl9Transport4recvESt10shared_ptrINS_7MessageEE
libdatachannel.so.0.21:_ZN3rtc4impl9Transport4sendESt10shared_ptrINS_7MessageEE
libdatachannel.so.0.21:_ZN3rtc4impl9Transport4stopEv
libdatachannel.so.0.21:_ZN3rtc4impl9Transport5startEv
libdatachannel.so.0.21:_ZN3rtc4impl9Transport6onRecvESt8functionIFvSt10shared_ptrINS_7MessageEEEE
libdatachannel.so.0.21:_ZN3rtc4impl9Transport8incomingESt10shared_ptrINS_7MessageEE
libdatachannel.so.0.21:_ZN3rtc4impl9Transport8outgoingESt10shared_ptrINS_7MessageEE
libdatachannel.so.0.21:_ZN3rtc4impl9TransportC1ESt10shared_ptrIS1_ESt8functionIFvNS1_5StateEEE
libdatachannel.so.0.21:_ZN3rtc4impl9TransportC2ESt10shared_ptrIS1_ESt8functionIFvNS1_5StateEEE
libdatachannel.so.0.21:_ZN3rtc4impl9TransportD0Ev
libdatachannel.so.0.21:_ZN3rtc4impl9TransportD1Ev
libdatachannel.so.0.21:_ZN3rtc4impl9TransportD2Ev
libdatachannel.so.0.21:_ZN3rtc4impl9WebSocket11changeStateENS_9WebSocket5StateE
libdatachannel.so.0.21:_ZN3rtc4impl9WebSocket11remoteCloseEv
libdatachannel.so.0.21:_ZN3rtc4impl9WebSocket15closeTransportsEv
libdatachannel.so.0.21:_ZN3rtc4impl9WebSocket15initWsTransportEv
libdatachannel.so.0.21:_ZN3rtc4impl9WebSocket15loadCertificateERKNS_22WebSocketConfigurationE
libdatachannel.so.0.21:_ZN3rtc4impl9WebSocket15setTcpTransportESt10shared_ptrINS0_12TcpTransportEE
libdatachannel.so.0.21:_ZN3rtc4impl9WebSocket16initTlsTransportEv
libdatachannel.so.0.21:_ZN3rtc4impl9WebSocket18initProxyTransportEv
libdatachannel.so.0.21:_ZN3rtc4impl9WebSocket25scheduleConnectionTimeoutEv
libdatachannel.so.0.21:_ZN3rtc4impl9WebSocket4openERKNSt7__cxx1112basic_stringIcSt11char_traitsIcESaIcEEE
libdatachannel.so.0.21:_ZN3rtc4impl9WebSocket4peekB5cxx11Ev
libdatachannel.so.0.21:_ZN3rtc4impl9WebSocket5closeEv
libdatachannel.so.0.21:_ZN3rtc4impl9WebSocket7receiveB5cxx11Ev
libdatachannel.so.0.21:_ZN3rtc4impl9WebSocket8incomingESt10shared_ptrINS_7MessageEE
libdatachannel.so.0.21:_ZN3rtc4impl9WebSocket8outgoingESt10shared_ptrINS_7MessageEE
libdatachannel.so.0.21:_ZN3rtc4impl9WebSocketC1ESt8optionalINS_22WebSocketConfigurationEESt10shared_ptrINS0_11CertificateEE
libdatachannel.so.0.21:_ZN3rtc4impl9WebSocketC2ESt8optionalINS_22WebSocketConfigurationEESt10shared_ptrINS0_11CertificateEE
libdatachannel.so.0.21:_ZN3rtc4impl9WebSocketD1Ev
libdatachannel.so.0.21:_ZN3rtc4impl9WebSocketD2Ev
libdatachannel.so.0.21:_ZN3rtc4impllsERSoNS0_11PollService9DirectionE
libdatachannel.so.0.21:_ZN3rtc5Track14requestBitrateEj
libdatachannel.so.0.21:_ZN3rtc5Track14setDescriptionENS_11Description5MediaE
libdatachannel.so.0.21:_ZN3rtc5Track15getMediaHandlerEv
libdatachannel.so.0.21:_ZN3rtc5Track15requestKeyframeEv
libdatachannel.so.0.21:_ZN3rtc5Track15setMediaHandlerESt10shared_ptrINS_12MediaHandlerEE
libdatachannel.so.0.21:_ZN3rtc5Track17chainMediaHandlerESt10shared_ptrINS_12MediaHandlerEE
libdatachannel.so.0.21:_ZN3rtc5Track4sendEPKSt4bytem
libdatachannel.so.0.21:_ZN3rtc5Track4sendESt7variantIJSt6vectorISt4byteSaIS3_EENSt7__cxx1112basic_stringIcSt11char_traitsIcESaIcEEEEE
libdatachannel.so.0.21:_ZN3rtc5Track5closeEv
libdatachannel.so.0.21:_ZN3rtc5Track7onFrameESt8functionIFvSt6vectorISt4byteSaIS3_EENS_9FrameInfoEEE
libdatachannel.so.0.21:_ZN3rtc5TrackC1ESt10shared_ptrINS_4impl5TrackEE
libdatachannel.so.0.21:_ZN3rtc5TrackC2ESt10shared_ptrINS_4impl5TrackEE
libdatachannel.so.0.21:_ZN3rtc5TrackD0Ev
libdatachannel.so.0.21:_ZN3rtc5TrackD1Ev
libdatachannel.so.0.21:_ZN3rtc5TrackD2Ev
libdatachannel.so.0.21:_ZN3rtc6IsRtcpERKSt6vectorISt4byteSaIS1_EE
libdatachannel.so.0.21:_ZN3rtc6RtcpRr13preparePacketEjh
libdatachannel.so.0.21:_ZN3rtc6RtcpRr13setSenderSSRCEj
libdatachannel.so.0.21:_ZN3rtc6RtcpRr14getReportBlockEi
libdatachannel.so.0.21:_ZN3rtc6RtcpRr14isSenderReportEv
libdatachannel.so.0.21:_ZN3rtc6RtcpRr16isReceiverReportEv
libdatachannel.so.0.21:_ZN3rtc6RtcpRr20SizeWithReportBlocksEh
libdatachannel.so.0.21:_ZN3rtc6RtcpSr13preparePacketEjh
libdatachannel.so.0.21:_ZN3rtc6RtcpSr13setOctetCountEj
libdatachannel.so.0.21:_ZN3rtc6RtcpSr14getReportBlockEi
libdatachannel.so.0.21:_ZN3rtc6RtcpSr14setPacketCountEj
libdatachannel.so.0.21:_ZN3rtc6RtcpSr15setNtpTimestampEm
libdatachannel.so.0.21:_ZN3rtc6RtcpSr15setRtpTimestampEj
libdatachannel.so.0.21:_ZN3rtc6RtcpSr4SizeEj
libdatachannel.so.0.21:_ZN3rtc6RtpRtx15normalizePacketEmjh
libdatachannel.so.0.21:_ZN3rtc6RtpRtx6copyToEPNS_9RtpHeaderEmh
libdatachannel.so.0.21:_ZN3rtc6RtpRtx7getBodyEv
libdatachannel.so.0.21:_ZN3rtc7Channel11onAvailableESt8functionIFvvEE
libdatachannel.so.0.21:_ZN3rtc7Channel14resetCallbacksEv
libdatachannel.so.0.21:_ZN3rtc7Channel19onBufferedAmountLowESt8functionIFvvEE
libdatachannel.so.0.21:_ZN3rtc7Channel29setBufferedAmountLowThresholdEm
libdatachannel.so.0.21:_ZN3rtc7Channel4peekB5cxx11Ev
libdatachannel.so.0.21:_ZN3rtc7Channel6onOpenESt8functionIFvvEE
libdatachannel.so.0.21:_ZN3rtc7Channel7onErrorESt8functionIFvNSt7__cxx1112basic_stringIcSt11char_traitsIcESaIcEEEEE
libdatachannel.so.0.21:_ZN3rtc7Channel7receiveB5cxx11Ev
libdatachannel.so.0.21:_ZN3rtc7Channel8onClosedESt8functionIFvvEE
libdatachannel.so.0.21:_ZN3rtc7Channel9onMessageESt8functionIFvSt6vectorISt4byteSaIS3_EEEES1_IFvNSt7__cxx1112basic_stringIcSt11char_traitsIcESaIcEEEEE
libdatachannel.so.0.21:_ZN3rtc7Channel9onMessageESt8functionIFvSt7variantIJSt6vectorISt4byteSaIS4_EENSt7__cxx1112basic_stringIcSt11char_traitsIcESaIcEEEEEEE
libdatachannel.so.0.21:_ZN3rtc7ChannelC1ESt10shared_ptrINS_4impl7ChannelEE
libdatachannel.so.0.21:_ZN3rtc7ChannelC2ESt10shared_ptrINS_4impl7ChannelEE
libdatachannel.so.0.21:_ZN3rtc7ChannelD0Ev
libdatachannel.so.0.21:_ZN3rtc7ChannelD1Ev
libdatachannel.so.0.21:_ZN3rtc7ChannelD2Ev
libdatachannel.so.0.21:_ZN3rtc7CleanupEv
libdatachannel.so.0.21:_ZN3rtc7PreloadEv
libdatachannel.so.0.21:_ZN3rtc7RtcpFir13preparePacketEjh
libdatachannel.so.0.21:_ZN3rtc7RtcpFir4SizeEv
libdatachannel.so.0.21:_ZN3rtc7RtcpPli13preparePacketEj
libdatachannel.so.0.21:_ZN3rtc7RtcpPli4SizeEv
libdatachannel.so.0.21:_ZN3rtc7openssl11check_errorEiRKNSt7__cxx1112basic_stringIcSt11char_traitsIcESaIcEEE
libdatachannel.so.0.21:_ZN3rtc7openssl12error_stringB5cxx11Em
libdatachannel.so.0.21:_ZN3rtc7openssl17BIO_new_from_fileERKNSt7__cxx1112basic_stringIcSt11char_traitsIcESaIcEEE
libdatachannel.so.0.21:_ZN3rtc7openssl4initEv
libdatachannel.so.0.21:_ZN3rtc7openssl5checkEiRKNSt7__cxx1112basic_stringIcSt11char_traitsIcESaIcEEE
libdatachannel.so.0.21:_ZN3rtc8NalUnits17generateFragmentsEt
libdatachannel.so.0.21:_ZN3rtc8RtcpNack13getSeqNoCountEv
libdatachannel.so.0.21:_ZN3rtc8RtcpNack13preparePacketEjj
libdatachannel.so.0.21:_ZN3rtc8RtcpNack16addMissingPacketEPjPtt
libdatachannel.so.0.21:_ZN3rtc8RtcpNack4SizeEj
libdatachannel.so.0.21:_ZN3rtc8RtcpRemb10setBitrateEjj
libdatachannel.so.0.21:_ZN3rtc8RtcpRemb13SizeWithSSRCsEi
libdatachannel.so.0.21:_ZN3rtc8RtcpRemb13preparePacketEjjj
libdatachannel.so.0.21:_ZN3rtc8RtcpRemb7setSsrcEij
libdatachannel.so.0.21:_ZN3rtc8RtcpSdes13preparePacketEh
libdatachannel.so.0.21:_ZN3rtc8RtcpSdes4SizeESt6vectorIS1_IhSaIhEESaIS3_EE
libdatachannel.so.0.21:_ZN3rtc8RtcpSdes8getChunkEi
libdatachannel.so.0.21:_ZN3rtc9Candidate13changeAddressENSt7__cxx1112basic_stringIcSt11char_traitsIcESaIcEEE
libdatachannel.so.0.21:_ZN3rtc9Candidate13changeAddressENSt7__cxx1112basic_stringIcSt11char_traitsIcESaIcEEES6_
libdatachannel.so.0.21:_ZN3rtc9Candidate13changeAddressENSt7__cxx1112basic_stringIcSt11char_traitsIcESaIcEEEt
libdatachannel.so.0.21:_ZN3rtc9Candidate5parseENSt7__cxx1112basic_stringIcSt11char_traitsIcESaIcEEE
libdatachannel.so.0.21:_ZN3rtc9Candidate7hintMidENSt7__cxx1112basic_stringIcSt11char_traitsIcESaIcEEE
libdatachannel.so.0.21:_ZN3rtc9Candidate7resolveENS0_11ResolveModeE
libdatachannel.so.0.21:_ZN3rtc9CandidateC1ENSt7__cxx1112basic_stringIcSt11char_traitsIcESaIcEEE
libdatachannel.so.0.21:_ZN3rtc9CandidateC1ENSt7__cxx1112basic_stringIcSt11char_traitsIcESaIcEEES6_
libdatachannel.so.0.21:_ZN3rtc9CandidateC1Ev
libdatachannel.so.0.21:_ZN3rtc9CandidateC2ENSt7__cxx1112basic_stringIcSt11char_traitsIcESaIcEEE
libdatachannel.so.0.21:_ZN3rtc9CandidateC2ENSt7__cxx1112basic_stringIcSt11char_traitsIcESaIcEEES6_
libdatachannel.so.0.21:_ZN3rtc9CandidateC2Ev
libdatachannel.so.0.21:_ZN3rtc9IceServerC1ENSt7__cxx1112basic_stringIcSt11char_traitsIcESaIcEEES6_
libdatachannel.so.0.21:_ZN3rtc9IceServerC1ENSt7__cxx1112basic_stringIcSt11char_traitsIcESaIcEEES6_S6_S6_NS0_9RelayTypeE
libdatachannel.so.0.21:_ZN3rtc9IceServerC1ENSt7__cxx1112basic_stringIcSt11char_traitsIcESaIcEEEt
libdatachannel.so.0.21:_ZN3rtc9IceServerC1ENSt7__cxx1112basic_stringIcSt11char_traitsIcESaIcEEEtS6_S6_NS0_9RelayTypeE
libdatachannel.so.0.21:_ZN3rtc9IceServerC1ERKNSt7__cxx1112basic_stringIcSt11char_traitsIcESaIcEEE
libdatachannel.so.0.21:_ZN3rtc9IceServerC2ENSt7__cxx1112basic_stringIcSt11char_traitsIcESaIcEEES6_
libdatachannel.so.0.21:_ZN3rtc9IceServerC2ENSt7__cxx1112basic_stringIcSt11char_traitsIcESaIcEEES6_S6_S6_NS0_9RelayTypeE
libdatachannel.so.0.21:_ZN3rtc9IceServerC2ENSt7__cxx1112basic_stringIcSt11char_traitsIcESaIcEEEt
libdatachannel.so.0.21:_ZN3rtc9IceServerC2ENSt7__cxx1112basic_stringIcSt11char_traitsIcESaIcEEEtS6_S6_NS0_9RelayTypeE
libdatachannel.so.0.21:_ZN3rtc9IceServerC2ERKNSt7__cxx1112basic_stringIcSt11char_traitsIcESaIcEEE
libdatachannel.so.0.21:_ZN3rtc9RtpHeader12setExtensionEb
libdatachannel.so.0.21:_ZN3rtc9RtpHeader12setSeqNumberEt
libdatachannel.so.0.21:_ZN3rtc9RtpHeader12setTimestampEj
libdatachannel.so.0.21:_ZN3rtc9RtpHeader13preparePacketEv
libdatachannel.so.0.21:_ZN3rtc9RtpHeader14setPayloadTypeEh
libdatachannel.so.0.21:_ZN3rtc9RtpHeader18getExtensionHeaderEv
libdatachannel.so.0.21:_ZN3rtc9RtpHeader7getBodyEv
libdatachannel.so.0.21:_ZN3rtc9RtpHeader7setSsrcEj
libdatachannel.so.0.21:_ZN3rtc9RtpHeader9setMarkerEb
libdatachannel.so.0.21:_ZN3rtc9WebSocket10forceCloseEv
libdatachannel.so.0.21:_ZN3rtc9WebSocket4openERKNSt7__cxx1112basic_stringIcSt11char_traitsIcESaIcEEE
libdatachannel.so.0.21:_ZN3rtc9WebSocket4sendEPKSt4bytem
libdatachannel.so.0.21:_ZN3rtc9WebSocket4sendESt7variantIJSt6vectorISt4byteSaIS3_EENSt7__cxx1112basic_stringIcSt11char_traitsIcESaIcEEEEE
libdatachannel.so.0.21:_ZN3rtc9WebSocket5closeEv
libdatachannel.so.0.21:_ZN3rtc9WebSocketC1ENS_22WebSocketConfigurationE
libdatachannel.so.0.21:_ZN3rtc9WebSocketC1ESt10shared_ptrINS_4impl9WebSocketEE
libdatachannel.so.0.21:_ZN3rtc9WebSocketC1Ev
libdatachannel.so.0.21:_ZN3rtc9WebSocketC2ENS_22WebSocketConfigurationE
libdatachannel.so.0.21:_ZN3rtc9WebSocketC2ESt10shared_ptrINS_4impl9WebSocketEE
libdatachannel.so.0.21:_ZN3rtc9WebSocketC2Ev
libdatachannel.so.0.21:_ZN3rtc9WebSocketD0Ev
libdatachannel.so.0.21:_ZN3rtc9WebSocketD1Ev
libdatachannel.so.0.21:_ZN3rtc9WebSocketD2Ev
libdatachannel.so.0.21:_ZN3rtclsERSoNS_11Description4RoleE
libdatachannel.so.0.21:_ZN3rtclsERSoNS_11Description4TypeE
libdatachannel.so.0.21:_ZN3rtclsERSoNS_14PeerConnection14GatheringStateE
libdatachannel.so.0.21:_ZN3rtclsERSoNS_14PeerConnection14SignalingStateE
libdatachannel.so.0.21:_ZN3rtclsERSoNS_14PeerConnection5StateE
libdatachannel.so.0.21:_ZN3rtclsERSoNS_14PeerConnection8IceStateE
libdatachannel.so.0.21:_ZN3rtclsERSoNS_8LogLevelE
libdatachannel.so.0.21:_ZN3rtclsERSoNS_9WebSocket5StateE
libdatachannel.so.0.21:_ZN3rtclsERSoRKNS_11Description9DirectionE
libdatachannel.so.0.21:_ZN3rtclsERSoRKNS_11DescriptionE
libdatachannel.so.0.21:_ZN3rtclsERSoRKNS_9Candidate13TransportTypeE
libdatachannel.so.0.21:_ZN3rtclsERSoRKNS_9Candidate4TypeE
libdatachannel.so.0.21:_ZN3rtclsERSoRKNS_9CandidateE
libdatachannel.so.0.21:_ZNK3rtc10RtcpHeader11payloadTypeEv
libdatachannel.so.0.21:_ZNK3rtc10RtcpHeader11reportCountEv
libdatachannel.so.0.21:_ZNK3rtc10RtcpHeader13lengthInBytesEv
libdatachannel.so.0.21:_ZNK3rtc10RtcpHeader3logEv
libdatachannel.so.0.21:_ZNK3rtc10RtcpHeader6lengthEv
libdatachannel.so.0.21:_ZNK3rtc10RtcpHeader7paddingEv
libdatachannel.so.0.21:_ZNK3rtc10RtcpHeader7versionEv
libdatachannel.so.0.21:_ZNK3rtc11DataChannel11reliabilityEv
libdatachannel.so.0.21:_ZNK3rtc11DataChannel14maxMessageSizeEv
libdatachannel.so.0.21:_ZNK3rtc11DataChannel2idEv
libdatachannel.so.0.21:_ZNK3rtc11DataChannel5labelB5cxx11Ev
libdatachannel.so.0.21:_ZNK3rtc11DataChannel6isOpenEv
libdatachannel.so.0.21:_ZNK3rtc11DataChannel6streamEv
libdatachannel.so.0.21:_ZNK3rtc11DataChannel8isClosedEv
libdatachannel.so.0.21:_ZNK3rtc11DataChannel8protocolB5cxx11Ev
libdatachannel.so.0.21:_ZNK3rtc11Description10attributesB5cxx11Ev
libdatachannel.so.0.21:_ZNK3rtc11Description10candidatesEv
libdatachannel.so.0.21:_ZNK3rtc11Description10iceOptionsB5cxx11Ev
libdatachannel.so.0.21:_ZNK3rtc11Description10mediaCountEv
libdatachannel.so.0.21:_ZNK3rtc11Description10typeStringB5cxx11Ev
libdatachannel.so.0.21:_ZNK3rtc11Description11Application11descriptionB5cxx11Ev
libdatachannel.so.0.21:_ZNK3rtc11Description11Application11reciprocateEv
libdatachannel.so.0.21:_ZNK3rtc11Description11Application14maxMessageSizeEv
libdatachannel.so.0.21:_ZNK3rtc11Description11Application16generateSdpLinesB5cxx11ESt17basic_string_viewIcSt11char_traitsIcEE
libdatachannel.so.0.21:_ZNK3rtc11Description11Application8sctpPortEv
libdatachannel.so.0.21:_ZNK3rtc11Description11applicationEv
libdatachannel.so.0.21:_ZNK3rtc11Description11fingerprintEv
libdatachannel.so.0.21:_ZNK3rtc11Description11generateSdpB5cxx11ESt17basic_string_viewIcSt11char_traitsIcEE
libdatachannel.so.0.21:_ZNK3rtc11Description12hasCandidateERKNS_9CandidateE
libdatachannel.so.0.21:_ZNK3rtc11Description14hasApplicationEv
libdatachannel.so.0.21:_ZNK3rtc11Description15hasAudioOrVideoEv
libdatachannel.so.0.21:_ZNK3rtc11Description16defaultCandidateEv
libdatachannel.so.0.21:_ZNK3rtc11Description22generateApplicationSdpB5cxx11ESt17basic_string_viewIcSt11char_traitsIcEE
libdatachannel.so.0.21:_ZNK3rtc11Description4roleEv
libdatachannel.so.0.21:_ZNK3rtc11Description4typeEv
libdatachannel.so.0.21:_ZNK3rtc11Description5Entry10attributesB5cxx11Ev
libdatachannel.so.0.21:_ZNK3rtc11Description5Entry11descriptionB5cxx11Ev
libdatachannel.so.0.21:_ZNK3rtc11Description5Entry11generateSdpB5cxx11ESt17basic_string_viewIcSt11char_traitsIcEES5_t
libdatachannel.so.0.21:_ZNK3rtc11Description5Entry16generateSdpLinesB5cxx11ESt17basic_string_viewIcSt11char_traitsIcEE
libdatachannel.so.0.21:_ZNK3rtc11Description5Entry3midB5cxx11Ev
libdatachannel.so.0.21:_ZNK3rtc11Description5Entry4typeB5cxx11Ev
libdatachannel.so.0.21:_ZNK3rtc11Description5Entry6extMapEi
libdatachannel.so.0.21:_ZNK3rtc11Description5Entry9directionEv
libdatachannel.so.0.21:_ZNK3rtc11Description5Entry9isRemovedEv
libdatachannel.so.0.21:_ZNK3rtc11Description5EntrycvNSt7__cxx1112basic_stringIcSt11char_traitsIcESaIcEEEEv
libdatachannel.so.0.21:_ZNK3rtc11Description5Media11descriptionB5cxx11Ev
libdatachannel.so.0.21:_ZNK3rtc11Description5Media11reciprocateEv
libdatachannel.so.0.21:_ZNK3rtc11Description5Media12payloadTypesEv
libdatachannel.so.0.21:_ZNK3rtc11Description5Media14hasPayloadTypeEi
libdatachannel.so.0.21:_ZNK3rtc11Description5Media15getCNameForSsrcB5cxx11Ej
libdatachannel.so.0.21:_ZNK3rtc11Description5Media16generateSdpLinesB5cxx11ESt17basic_string_viewIcSt11char_traitsIcEE
libdatachannel.so.0.21:_ZNK3rtc11Description5Media6rtpMapEi
libdatachannel.so.0.21:_ZNK3rtc11Description5Media7bitrateEv
libdatachannel.so.0.21:_ZNK3rtc11Description5Media7hasSSRCEj
libdatachannel.so.0.21:_ZNK3rtc11Description5Media8getSSRCsEv
libdatachannel.so.0.21:_ZNK3rtc11Description5endedEv
libdatachannel.so.0.21:_ZNK3rtc11Description5mediaEj
libdatachannel.so.0.21:_ZNK3rtc11Description6hasMidESt17basic_string_viewIcSt11char_traitsIcEE
libdatachannel.so.0.21:_ZNK3rtc11Description6icePwdB5cxx11Ev
libdatachannel.so.0.21:_ZNK3rtc11Description8iceUfragB5cxx11Ev
libdatachannel.so.0.21:_ZNK3rtc11Description9bundleMidB5cxx11Ev
libdatachannel.so.0.21:_ZNK3rtc11DescriptioncvNSt7__cxx1112basic_stringIcSt11char_traitsIcESaIcEEEEv
libdatachannel.so.0.21:_ZNK3rtc12MediaHandler4lastEv
libdatachannel.so.0.21:_ZNK3rtc12MediaHandler4nextEv
libdatachannel.so.0.21:_ZNK3rtc12RtcpFbHeader15mediaSourceSSRCEv
libdatachannel.so.0.21:_ZNK3rtc12RtcpFbHeader16packetSenderSSRCEv
libdatachannel.so.0.21:_ZNK3rtc12RtcpFbHeader3logEv
libdatachannel.so.0.21:_ZNK3rtc12RtcpSdesItem4textB5cxx11Ev
libdatachannel.so.0.21:_ZNK3rtc12RtcpSdesItem6lengthEv
libdatachannel.so.0.21:_ZNK3rtc13RtcpSdesChunk20safelyCountChunkSizeEm
libdatachannel.so.0.21:_ZNK3rtc13RtcpSdesChunk4ssrcEv
libdatachannel.so.0.21:_ZNK3rtc13RtcpSdesChunk7getItemEi
libdatachannel.so.0.21:_ZNK3rtc13RtcpSdesChunk7getSizeEv
libdatachannel.so.0.21:_ZNK3rtc14PeerConnection12localAddressB5cxx11Ev
libdatachannel.so.0.21:_ZNK3rtc14PeerConnection13remoteAddressB5cxx11Ev
libdatachannel.so.0.21:_ZNK3rtc14PeerConnection14gatheringStateEv
libdatachannel.so.0.21:_ZNK3rtc14PeerConnection14signalingStateEv
libdatachannel.so.0.21:_ZNK3rtc14PeerConnection16localDescriptionEv
libdatachannel.so.0.21:_ZNK3rtc14PeerConnection16maxDataChannelIdEv
libdatachannel.so.0.21:_ZNK3rtc14PeerConnection17remoteDescriptionEv
libdatachannel.so.0.21:_ZNK3rtc14PeerConnection20remoteMaxMessageSizeEv
libdatachannel.so.0.21:_ZNK3rtc14PeerConnection5stateEv
libdatachannel.so.0.21:_ZNK3rtc14PeerConnection6configEv
libdatachannel.so.0.21:_ZNK3rtc14PeerConnection8hasMediaEv
libdatachannel.so.0.21:_ZNK3rtc14PeerConnection8iceStateEv
libdatachannel.so.0.21:_ZNK3rtc14RtcpSrReporter21lastReportedTimestampEv
libdatachannel.so.0.21:_ZNK3rtc15RtcpReportBlock10getNTPOfSREv
libdatachannel.so.0.21:_ZNK3rtc15RtcpReportBlock11seqNoCyclesEv
libdatachannel.so.0.21:_ZNK3rtc15RtcpReportBlock12delaySinceSREv
libdatachannel.so.0.21:_ZNK3rtc15RtcpReportBlock12highestSeqNoEv
libdatachannel.so.0.21:_ZNK3rtc15RtcpReportBlock15getFractionLostEv
libdatachannel.so.0.21:_ZNK3rtc15RtcpReportBlock19getPacketsLostCountEv
libdatachannel.so.0.21:_ZNK3rtc15RtcpReportBlock20extendedHighestSeqNoEv
libdatachannel.so.0.21:_ZNK3rtc15RtcpReportBlock3logEv
libdatachannel.so.0.21:_ZNK3rtc15RtcpReportBlock6jitterEv
libdatachannel.so.0.21:_ZNK3rtc15RtcpReportBlock7getSSRCEv
libdatachannel.so.0.21:_ZNK3rtc15WebSocketServer4portEv
libdatachannel.so.0.21:_ZNK3rtc18RtpExtensionHeader12headerLengthEv
libdatachannel.so.0.21:_ZNK3rtc18RtpExtensionHeader17profileSpecificIdEv
libdatachannel.so.0.21:_ZNK3rtc18RtpExtensionHeader7getBodyEv
libdatachannel.so.0.21:_ZNK3rtc18RtpExtensionHeader7getSizeEv
libdatachannel.so.0.21:_ZNK3rtc22CertificateFingerprint7isValidEv
libdatachannel.so.0.21:_ZNK3rtc4impl10ThreadPool5countEv
libdatachannel.so.0.21:_ZNK3rtc4impl11Certificate11credentialsEv
libdatachannel.so.0.21:_ZNK3rtc4impl11Certificate11fingerprintEv
libdatachannel.so.0.21:_ZNK3rtc4impl11DataChannel11reliabilityEv
libdatachannel.so.0.21:_ZNK3rtc4impl11DataChannel14maxMessageSizeEv
libdatachannel.so.0.21:_ZNK3rtc4impl11DataChannel15availableAmountEv
libdatachannel.so.0.21:_ZNK3rtc4impl11DataChannel5labelB5cxx11Ev
libdatachannel.so.0.21:_ZNK3rtc4impl11DataChannel6isOpenEv
libdatachannel.so.0.21:_ZNK3rtc4impl11DataChannel6streamEv
libdatachannel.so.0.21:_ZNK3rtc4impl11DataChannel8isClosedEv
libdatachannel.so.0.21:_ZNK3rtc4impl11DataChannel8protocolB5cxx11Ev
libdatachannel.so.0.21:_ZNK3rtc4impl11WsHandshake12RequestError12responseCodeEv
libdatachannel.so.0.21:_ZNK3rtc4impl11WsHandshake4hostB5cxx11Ev
libdatachannel.so.0.21:_ZNK3rtc4impl11WsHandshake4pathB5cxx11Ev
libdatachannel.so.0.21:_ZNK3rtc4impl11WsHandshake9protocolsB5cxx11Ev
libdatachannel.so.0.21:_ZNK3rtc4impl12IceTransport15getLocalAddressB5cxx11Ev
libdatachannel.so.0.21:_ZNK3rtc4impl12IceTransport16getRemoteAddressB5cxx11Ev
libdatachannel.so.0.21:_ZNK3rtc4impl12IceTransport19getLocalDescriptionENS_11Description4TypeE
libdatachannel.so.0.21:_ZNK3rtc4impl12IceTransport4roleEv
libdatachannel.so.0.21:_ZNK3rtc4impl12TcpTransport13remoteAddressB5cxx11Ev
libdatachannel.so.0.21:_ZNK3rtc4impl12TcpTransport8isActiveEv
libdatachannel.so.0.21:_ZNK3rtc4impl13SctpTransport9maxStreamEv
libdatachannel.so.0.21:_ZNK3rtc4impl14PeerConnection14localBundleMidB5cxx11Ev
libdatachannel.so.0.21:_ZNK3rtc4impl14PeerConnection15getIceTransportEv
libdatachannel.so.0.21:_ZNK3rtc4impl14PeerConnection16checkFingerprintERKNSt7__cxx1112basic_stringIcSt11char_traitsIcESaIcEEE
libdatachannel.so.0.21:_ZNK3rtc4impl14PeerConnection16getDtlsTransportEv
libdatachannel.so.0.21:_ZNK3rtc4impl14PeerConnection16getSctpTransportEv
libdatachannel.so.0.21:_ZNK3rtc4impl14PeerConnection16localDescriptionEv
libdatachannel.so.0.21:_ZNK3rtc4impl14PeerConnection17remoteDescriptionEv
libdatachannel.so.0.21:_ZNK3rtc4impl14PeerConnection20maxDataChannelStreamEv
libdatachannel.so.0.21:_ZNK3rtc4impl14PeerConnection20remoteMaxMessageSizeEv
libdatachannel.so.0.21:_ZNK3rtc4impl18HttpProxyTransport8isActiveEv
libdatachannel.so.0.21:_ZNK3rtc4impl5Track11descriptionEv
libdatachannel.so.0.21:_ZNK3rtc4impl5Track14maxMessageSizeEv
libdatachannel.so.0.21:_ZNK3rtc4impl5Track15availableAmountEv
libdatachannel.so.0.21:_ZNK3rtc4impl5Track3midB5cxx11Ev
libdatachannel.so.0.21:_ZNK3rtc4impl5Track6isOpenEv
libdatachannel.so.0.21:_ZNK3rtc4impl5Track8isClosedEv
libdatachannel.so.0.21:_ZNK3rtc4impl5Track9directionEv
libdatachannel.so.0.21:_ZNK3rtc4impl9Transport5stateEv
libdatachannel.so.0.21:_ZNK3rtc4impl9WebSocket14getWsHandshakeEv
libdatachannel.so.0.21:_ZNK3rtc4impl9WebSocket14getWsTransportEv
libdatachannel.so.0.21:_ZNK3rtc4impl9WebSocket14maxMessageSizeEv
libdatachannel.so.0.21:_ZNK3rtc4impl9WebSocket15availableAmountEv
libdatachannel.so.0.21:_ZNK3rtc4impl9WebSocket15getTcpTransportEv
libdatachannel.so.0.21:_ZNK3rtc4impl9WebSocket15getTlsTransportEv
libdatachannel.so.0.21:_ZNK3rtc4impl9WebSocket6isOpenEv
libdatachannel.so.0.21:_ZNK3rtc4impl9WebSocket8isClosedEv
libdatachannel.so.0.21:_ZNK3rtc5Track11descriptionEv
libdatachannel.so.0.21:_ZNK3rtc5Track14maxMessageSizeEv
libdatachannel.so.0.21:_ZNK3rtc5Track3midB5cxx11Ev
libdatachannel.so.0.21:_ZNK3rtc5Track6isOpenEv
libdatachannel.so.0.21:_ZNK3rtc5Track8isClosedEv
libdatachannel.so.0.21:_ZNK3rtc5Track9directionEv
libdatachannel.so.0.21:_ZNK3rtc6RtcpRr10senderSSRCEv
libdatachannel.so.0.21:_ZNK3rtc6RtcpRr14getReportBlockEi
libdatachannel.so.0.21:_ZNK3rtc6RtcpRr3logEv
libdatachannel.so.0.21:_ZNK3rtc6RtcpRr7getSizeEv
libdatachannel.so.0.21:_ZNK3rtc6RtcpSr10octetCountEv
libdatachannel.so.0.21:_ZNK3rtc6RtcpSr10senderSSRCEv
libdatachannel.so.0.21:_ZNK3rtc6RtcpSr11packetCountEv
libdatachannel.so.0.21:_ZNK3rtc6RtcpSr12ntpTimestampEv
libdatachannel.so.0.21:_ZNK3rtc6RtcpSr12rtpTimestampEv
libdatachannel.so.0.21:_ZNK3rtc6RtcpSr14getReportBlockEi
libdatachannel.so.0.21:_ZNK3rtc6RtcpSr3logEv
libdatachannel.so.0.21:_ZNK3rtc6RtcpSr7getSizeEv
libdatachannel.so.0.21:_ZNK3rtc6RtpRtx11getBodySizeEm
libdatachannel.so.0.21:_ZNK3rtc6RtpRtx16getOriginalSeqNoEv
libdatachannel.so.0.21:_ZNK3rtc6RtpRtx7getBodyEv
libdatachannel.so.0.21:_ZNK3rtc6RtpRtx7getSizeEv
libdatachannel.so.0.21:_ZNK3rtc7Channel14bufferedAmountEv
libdatachannel.so.0.21:_ZNK3rtc7Channel14maxMessageSizeEv
libdatachannel.so.0.21:_ZNK3rtc7Channel15availableAmountEv
libdatachannel.so.0.21:_ZNK3rtc7RtcpFir3logEv
libdatachannel.so.0.21:_ZNK3rtc7RtcpPli3logEv
libdatachannel.so.0.21:_ZNK3rtc8RtcpRemb7getSizeEv
libdatachannel.so.0.21:_ZNK3rtc8RtcpSdes11chunksCountEv
libdatachannel.so.0.21:_ZNK3rtc8RtcpSdes7isValidEv
libdatachannel.so.0.21:_ZNK3rtc8RtcpSdes8getChunkEi
libdatachannel.so.0.21:_ZNK3rtc9Candidate10isResolvedEv
libdatachannel.so.0.21:_ZNK3rtc9Candidate13transportTypeEv
libdatachannel.so.0.21:_ZNK3rtc9Candidate3midB5cxx11Ev
libdatachannel.so.0.21:_ZNK3rtc9Candidate4portEv
libdatachannel.so.0.21:_ZNK3rtc9Candidate4typeEv
libdatachannel.so.0.21:_ZNK3rtc9Candidate6familyEv
libdatachannel.so.0.21:_ZNK3rtc9Candidate7addressB5cxx11Ev
libdatachannel.so.0.21:_ZNK3rtc9Candidate8priorityEv
libdatachannel.so.0.21:_ZNK3rtc9Candidate9candidateB5cxx11Ev
libdatachannel.so.0.21:_ZNK3rtc9CandidatecvNSt7__cxx1112basic_stringIcSt11char_traitsIcESaIcEEEEv
libdatachannel.so.0.21:_ZNK3rtc9CandidateeqERKS0_
libdatachannel.so.0.21:_ZNK3rtc9CandidateneERKS0_
libdatachannel.so.0.21:_ZNK3rtc9RtpHeader11payloadTypeEv
libdatachannel.so.0.21:_ZNK3rtc9RtpHeader18getExtensionHeaderEv
libdatachannel.so.0.21:_ZNK3rtc9RtpHeader22getExtensionHeaderSizeEv
libdatachannel.so.0.21:_ZNK3rtc9RtpHeader3logEv
libdatachannel.so.0.21:_ZNK3rtc9RtpHeader4ssrcEv
libdatachannel.so.0.21:_ZNK3rtc9RtpHeader6markerEv
libdatachannel.so.0.21:_ZNK3rtc9RtpHeader7getBodyEv
libdatachannel.so.0.21:_ZNK3rtc9RtpHeader7getSizeEv
libdatachannel.so.0.21:_ZNK3rtc9RtpHeader7paddingEv
libdatachannel.so.0.21:_ZNK3rtc9RtpHeader7versionEv
libdatachannel.so.0.21:_ZNK3rtc9RtpHeader9csrcCountEv
libdatachannel.so.0.21:_ZNK3rtc9RtpHeader9extensionEv
libdatachannel.so.0.21:_ZNK3rtc9RtpHeader9seqNumberEv
libdatachannel.so.0.21:_ZNK3rtc9RtpHeader9timestampEv
libdatachannel.so.0.21:_ZNK3rtc9WebSocket10readyStateEv
libdatachannel.so.0.21:_ZNK3rtc9WebSocket13remoteAddressB5cxx11Ev
libdatachannel.so.0.21:_ZNK3rtc9WebSocket14maxMessageSizeEv
libdatachannel.so.0.21:_ZNK3rtc9WebSocket4pathB5cxx11Ev
libdatachannel.so.0.21:_ZNK3rtc9WebSocket6isOpenEv
libdatachannel.so.0.21:_ZNK3rtc9WebSocket8isClosedEv
libdatachannel.so.0.21:_ZNSt13__future_base13_State_baseV29_M_do_setEPSt8functionIFSt10unique_ptrINS_12_Result_baseENS3_8_DeleterEEvEEPb
libdatachannel.so.0.21:_ZNSt15__exception_ptr12__dest_thunkISt12future_errorEEvPv
libdatachannel.so.0.21:_ZNSt15__exception_ptr12__dest_thunkISt9exceptionEEvPv
libdatachannel.so.0.21:_ZNSt17_Function_handlerIFSt10unique_ptrINSt13__future_base12_Result_baseENS2_8_DeleterEEvENS1_12_Task_setterIS0_INS1_7_ResultIbEES3_EZNS1_11_Task_stateIZN3rtc4impl10ThreadPool8scheduleIZNSC_9Processor7enqueueIMNSC_13SctpTransportEFbvEJSt10shared_ptrISH_EEEEvOT_DpOT0_EUlvE_JEEESt6futureINSt13invoke_resultINSt5decayISM_E4typeEJDpNSU_ISO_E4typeEEE4typeEENSt6chrono10time_pointINS13_3_V212steady_clockENS13_8durationIlSt5ratioILl1ELl1000000000EEEEEESN_SQ_EUlvE_SaIiEFbvEE14_M_run_delayedESt8weak_ptrINS1_13_State_baseV2EEEUlvE_bEEE10_M_managerERSt9_Any_dataRKS1M_St18_Manager_operation
libdatachannel.so.0.21:_ZNSt17_Function_handlerIFSt10unique_ptrINSt13__future_base12_Result_baseENS2_8_DeleterEEvENS1_12_Task_setterIS0_INS1_7_ResultIbEES3_EZNS1_11_Task_stateIZN3rtc4impl10ThreadPool8scheduleIZNSC_9Processor7enqueueIMNSC_13SctpTransportEFbvEJSt10shared_ptrISH_EEEEvOT_DpOT0_EUlvE_JEEESt6futureINSt13invoke_resultINSt5decayISM_E4typeEJDpNSU_ISO_E4typeEEE4typeEENSt6chrono10time_pointINS13_3_V212steady_clockENS13_8durationIlSt5ratioILl1ELl1000000000EEEEEESN_SQ_EUlvE_SaIiEFbvEE14_M_run_delayedESt8weak_ptrINS1_13_State_baseV2EEEUlvE_bEEE9_M_invokeERKSt9_Any_data
libdatachannel.so.0.21:_ZNSt17_Function_handlerIFSt10unique_ptrINSt13__future_base12_Result_baseENS2_8_DeleterEEvENS1_12_Task_setterIS0_INS1_7_ResultIbEES3_EZNS1_11_Task_stateIZN3rtc4impl10ThreadPool8scheduleIZNSC_9Processor7enqueueIMNSC_13SctpTransportEFbvEJSt10shared_ptrISH_EEEEvOT_DpOT0_EUlvE_JEEESt6futureINSt13invoke_resultINSt5decayISM_E4typeEJDpNSU_ISO_E4typeEEE4typeEENSt6chrono10time_pointINS13_3_V212steady_clockENS13_8durationIlSt5ratioILl1ELl1000000000EEEEEESN_SQ_EUlvE_SaIiEFbvEE6_M_runEvEUlvE_bEEE10_M_managerERSt9_Any_dataRKS1J_St18_Manager_operation
libdatachannel.so.0.21:_ZNSt17_Function_handlerIFSt10unique_ptrINSt13__future_base12_Result_baseENS2_8_DeleterEEvENS1_12_Task_setterIS0_INS1_7_ResultIbEES3_EZNS1_11_Task_stateIZN3rtc4impl10ThreadPool8scheduleIZNSC_9Processor7enqueueIMNSC_13SctpTransportEFbvEJSt10shared_ptrISH_EEEEvOT_DpOT0_EUlvE_JEEESt6futureINSt13invoke_resultINSt5decayISM_E4typeEJDpNSU_ISO_E4typeEEE4typeEENSt6chrono10time_pointINS13_3_V212steady_clockENS13_8durationIlSt5ratioILl1ELl1000000000EEEEEESN_SQ_EUlvE_SaIiEFbvEE6_M_runEvEUlvE_bEEE9_M_invokeERKSt9_Any_data
libdatachannel.so.0.21:_ZNSt17_Function_handlerIFSt10unique_ptrINSt13__future_base12_Result_baseENS2_8_DeleterEEvENS1_12_Task_setterIS0_INS1_7_ResultIvEES3_EZNS1_11_Task_stateIZN3rtc4impl10ThreadPool8scheduleIMNSC_12TlsTransportEFvvEJSt10shared_ptrISF_EEEESt6futureINSt13invoke_resultINSt5decayIT_E4typeEJDpNSM_IT0_E4typeEEE4typeEENSt6chrono10time_pointINSX_3_V212steady_clockENSX_8durationIlSt5ratioILl1ELl1000000000EEEEEEOSN_DpOSQ_EUlvE_SaIiEFvvEE14_M_run_delayedESt8weak_ptrINS1_13_State_baseV2EEEUlvE_vEEE10_M_managerERSt9_Any_dataRKS1J_St18_Manager_operation
libdatachannel.so.0.21:_ZNSt17_Function_handlerIFSt10unique_ptrINSt13__future_base12_Result_baseENS2_8_DeleterEEvENS1_12_Task_setterIS0_INS1_7_ResultIvEES3_EZNS1_11_Task_stateIZN3rtc4impl10ThreadPool8scheduleIMNSC_12TlsTransportEFvvEJSt10shared_ptrISF_EEEESt6futureINSt13invoke_resultINSt5decayIT_E4typeEJDpNSM_IT0_E4typeEEE4typeEENSt6chrono10time_pointINSX_3_V212steady_clockENSX_8durationIlSt5ratioILl1ELl1000000000EEEEEEOSN_DpOSQ_EUlvE_SaIiEFvvEE14_M_run_delayedESt8weak_ptrINS1_13_State_baseV2EEEUlvE_vEEE9_M_invokeERKSt9_Any_data
libdatachannel.so.0.21:_ZNSt17_Function_handlerIFSt10unique_ptrINSt13__future_base12_Result_baseENS2_8_DeleterEEvENS1_12_Task_setterIS0_INS1_7_ResultIvEES3_EZNS1_11_Task_stateIZN3rtc4impl10ThreadPool8scheduleIMNSC_12TlsTransportEFvvEJSt10shared_ptrISF_EEEESt6futureINSt13invoke_resultINSt5decayIT_E4typeEJDpNSM_IT0_E4typeEEE4typeEENSt6chrono10time_pointINSX_3_V212steady_clockENSX_8durationIlSt5ratioILl1ELl1000000000EEEEEEOSN_DpOSQ_EUlvE_SaIiEFvvEE6_M_runEvEUlvE_vEEE10_M_managerERSt9_Any_dataRKS1G_St18_Manager_operation
libdatachannel.so.0.21:_ZNSt17_Function_handlerIFSt10unique_ptrINSt13__future_base12_Result_baseENS2_8_DeleterEEvENS1_12_Task_setterIS0_INS1_7_ResultIvEES3_EZNS1_11_Task_stateIZN3rtc4impl10ThreadPool8scheduleIMNSC_12TlsTransportEFvvEJSt10shared_ptrISF_EEEESt6futureINSt13invoke_resultINSt5decayIT_E4typeEJDpNSM_IT0_E4typeEEE4typeEENSt6chrono10time_pointINSX_3_V212steady_clockENSX_8durationIlSt5ratioILl1ELl1000000000EEEEEEOSN_DpOSQ_EUlvE_SaIiEFvvEE6_M_runEvEUlvE_vEEE9_M_invokeERKSt9_Any_data
libdatachannel.so.0.21:_ZNSt17_Function_handlerIFSt10unique_ptrINSt13__future_base12_Result_baseENS2_8_DeleterEEvENS1_12_Task_setterIS0_INS1_7_ResultIvEES3_EZNS1_11_Task_stateIZN3rtc4impl10ThreadPool8scheduleIMNSC_13DtlsTransportEFvvEJSt10shared_ptrISF_EEEESt6futureINSt13invoke_resultINSt5decayIT_E4typeEJDpNSM_IT0_E4typeEEE4typeEENSt6chrono10time_pointINSX_3_V212steady_clockENSX_8durationIlSt5ratioILl1ELl1000000000EEEEEEOSN_DpOSQ_EUlvE_SaIiEFvvEE14_M_run_delayedESt8weak_ptrINS1_13_State_baseV2EEEUlvE_vEEE10_M_managerERSt9_Any_dataRKS1J_St18_Manager_operation
libdatachannel.so.0.21:_ZNSt17_Function_handlerIFSt10unique_ptrINSt13__future_base12_Result_baseENS2_8_DeleterEEvENS1_12_Task_setterIS0_INS1_7_ResultIvEES3_EZNS1_11_Task_stateIZN3rtc4impl10ThreadPool8scheduleIMNSC_13DtlsTransportEFvvEJSt10shared_ptrISF_EEEESt6futureINSt13invoke_resultINSt5decayIT_E4typeEJDpNSM_IT0_E4typeEEE4typeEENSt6chrono10time_pointINSX_3_V212steady_clockENSX_8durationIlSt5ratioILl1ELl1000000000EEEEEEOSN_DpOSQ_EUlvE_SaIiEFvvEE14_M_run_delayedESt8weak_ptrINS1_13_State_baseV2EEEUlvE_vEEE9_M_invokeERKSt9_Any_data
libdatachannel.so.0.21:_ZNSt17_Function_handlerIFSt10unique_ptrINSt13__future_base12_Result_baseENS2_8_DeleterEEvENS1_12_Task_setterIS0_INS1_7_ResultIvEES3_EZNS1_11_Task_stateIZN3rtc4impl10ThreadPool8scheduleIMNSC_13DtlsTransportEFvvEJSt10shared_ptrISF_EEEESt6futureINSt13invoke_resultINSt5decayIT_E4typeEJDpNSM_IT0_E4typeEEE4typeEENSt6chrono10time_pointINSX_3_V212steady_clockENSX_8durationIlSt5ratioILl1ELl1000000000EEEEEEOSN_DpOSQ_EUlvE_SaIiEFvvEE6_M_runEvEUlvE_vEEE10_M_managerERSt9_Any_dataRKS1G_St18_Manager_operation
libdatachannel.so.0.21:_ZNSt17_Function_handlerIFSt10unique_ptrINSt13__future_base12_Result_baseENS2_8_DeleterEEvENS1_12_Task_setterIS0_INS1_7_ResultIvEES3_EZNS1_11_Task_stateIZN3rtc4impl10ThreadPool8scheduleIMNSC_13DtlsTransportEFvvEJSt10shared_ptrISF_EEEESt6futureINSt13invoke_resultINSt5decayIT_E4typeEJDpNSM_IT0_E4typeEEE4typeEENSt6chrono10time_pointINSX_3_V212steady_clockENSX_8durationIlSt5ratioILl1ELl1000000000EEEEEEOSN_DpOSQ_EUlvE_SaIiEFvvEE6_M_runEvEUlvE_vEEE9_M_invokeERKSt9_Any_data
libdatachannel.so.0.21:_ZNSt17_Function_handlerIFSt10unique_ptrINSt13__future_base12_Result_baseENS2_8_DeleterEEvENS1_12_Task_setterIS0_INS1_7_ResultIvEES3_EZNS1_11_Task_stateIZN3rtc4impl10ThreadPool8scheduleISt8functionIFvvEEJEEESt6futureINSt13invoke_resultINSt5decayIT_E4typeEJDpNSK_IT0_E4typeEEE4typeEENSt6chrono10time_pointINSV_3_V212steady_clockENSV_8durationIlSt5ratioILl1ELl1000000000EEEEEEOSL_DpOSO_EUlvE_SaIiESG_E14_M_run_delayedESt8weak_ptrINS1_13_State_baseV2EEEUlvE_vEEE10_M_managerERSt9_Any_dataRKS1G_St18_Manager_operation
libdatachannel.so.0.21:_ZNSt17_Function_handlerIFSt10unique_ptrINSt13__future_base12_Result_baseENS2_8_DeleterEEvENS1_12_Task_setterIS0_INS1_7_ResultIvEES3_EZNS1_11_Task_stateIZN3rtc4impl10ThreadPool8scheduleISt8functionIFvvEEJEEESt6futureINSt13invoke_resultINSt5decayIT_E4typeEJDpNSK_IT0_E4typeEEE4typeEENSt6chrono10time_pointINSV_3_V212steady_clockENSV_8durationIlSt5ratioILl1ELl1000000000EEEEEEOSL_DpOSO_EUlvE_SaIiESG_E14_M_run_delayedESt8weak_ptrINS1_13_State_baseV2EEEUlvE_vEEE9_M_invokeERKSt9_Any_data
libdatachannel.so.0.21:_ZNSt17_Function_handlerIFSt10unique_ptrINSt13__future_base12_Result_baseENS2_8_DeleterEEvENS1_12_Task_setterIS0_INS1_7_ResultIvEES3_EZNS1_11_Task_stateIZN3rtc4impl10ThreadPool8scheduleISt8functionIFvvEEJEEESt6futureINSt13invoke_resultINSt5decayIT_E4typeEJDpNSK_IT0_E4typeEEE4typeEENSt6chrono10time_pointINSV_3_V212steady_clockENSV_8durationIlSt5ratioILl1ELl1000000000EEEEEEOSL_DpOSO_EUlvE_SaIiESG_E6_M_runEvEUlvE_vEEE10_M_managerERSt9_Any_dataRKS1D_St18_Manager_operation
libdatachannel.so.0.21:_ZNSt17_Function_handlerIFSt10unique_ptrINSt13__future_base12_Result_baseENS2_8_DeleterEEvENS1_12_Task_setterIS0_INS1_7_ResultIvEES3_EZNS1_11_Task_stateIZN3rtc4impl10ThreadPool8scheduleISt8functionIFvvEEJEEESt6futureINSt13invoke_resultINSt5decayIT_E4typeEJDpNSK_IT0_E4typeEEE4typeEENSt6chrono10time_pointINSV_3_V212steady_clockENSV_8durationIlSt5ratioILl1ELl1000000000EEEEEEOSL_DpOSO_EUlvE_SaIiESG_E6_M_runEvEUlvE_vEEE9_M_invokeERKSt9_Any_data
libdatachannel.so.0.21:_ZNSt17_Function_handlerIFSt10unique_ptrINSt13__future_base12_Result_baseENS2_8_DeleterEEvENS1_12_Task_setterIS0_INS1_7_ResultIvEES3_EZNS1_11_Task_stateIZN3rtc4impl10ThreadPool8scheduleIZNSB_9weak_bindIMNSC_12TcpTransportEFvvESG_JEEEDaOT_PT0_DpOT1_EUlDpOT_E_JEEESt6futureINSt13invoke_resultINSt5decayISJ_E4typeEJDpNSW_IT0_E4typeEEE4typeEENSt6chrono10time_pointINS16_3_V212steady_clockENS16_8durationIlSt5ratioILl1ELl1000000000EEEEEESK_DpOSZ_EUlvE_SaIiEFvvEE14_M_run_delayedESt8weak_ptrINS1_13_State_baseV2EEEUlvE_vEEE10_M_managerERSt9_Any_dataRKS1R_St18_Manager_operation
libdatachannel.so.0.21:_ZNSt17_Function_handlerIFSt10unique_ptrINSt13__future_base12_Result_baseENS2_8_DeleterEEvENS1_12_Task_setterIS0_INS1_7_ResultIvEES3_EZNS1_11_Task_stateIZN3rtc4impl10ThreadPool8scheduleIZNSB_9weak_bindIMNSC_12TcpTransportEFvvESG_JEEEDaOT_PT0_DpOT1_EUlDpOT_E_JEEESt6futureINSt13invoke_resultINSt5decayISJ_E4typeEJDpNSW_IT0_E4typeEEE4typeEENSt6chrono10time_pointINS16_3_V212steady_clockENS16_8durationIlSt5ratioILl1ELl1000000000EEEEEESK_DpOSZ_EUlvE_SaIiEFvvEE14_M_run_delayedESt8weak_ptrINS1_13_State_baseV2EEEUlvE_vEEE9_M_invokeERKSt9_Any_data
libdatachannel.so.0.21:_ZNSt17_Function_handlerIFSt10unique_ptrINSt13__future_base12_Result_baseENS2_8_DeleterEEvENS1_12_Task_setterIS0_INS1_7_ResultIvEES3_EZNS1_11_Task_stateIZN3rtc4impl10ThreadPool8scheduleIZNSB_9weak_bindIMNSC_12TcpTransportEFvvESG_JEEEDaOT_PT0_DpOT1_EUlDpOT_E_JEEESt6futureINSt13invoke_resultINSt5decayISJ_E4typeEJDpNSW_IT0_E4typeEEE4typeEENSt6chrono10time_pointINS16_3_V212steady_clockENS16_8durationIlSt5ratioILl1ELl1000000000EEEEEESK_DpOSZ_EUlvE_SaIiEFvvEE6_M_runEvEUlvE_vEEE10_M_managerERSt9_Any_dataRKS1O_St18_Manager_operation
libdatachannel.so.0.21:_ZNSt17_Function_handlerIFSt10unique_ptrINSt13__future_base12_Result_baseENS2_8_DeleterEEvENS1_12_Task_setterIS0_INS1_7_ResultIvEES3_EZNS1_11_Task_stateIZN3rtc4impl10ThreadPool8scheduleIZNSB_9weak_bindIMNSC_12TcpTransportEFvvESG_JEEEDaOT_PT0_DpOT1_EUlDpOT_E_JEEESt6futureINSt13invoke_resultINSt5decayISJ_E4typeEJDpNSW_IT0_E4typeEEE4typeEENSt6chrono10time_pointINS16_3_V212steady_clockENS16_8durationIlSt5ratioILl1ELl1000000000EEEEEESK_DpOSZ_EUlvE_SaIiEFvvEE6_M_runEvEUlvE_vEEE9_M_invokeERKSt9_Any_data
libdatachannel.so.0.21:_ZNSt17_Function_handlerIFSt10unique_ptrINSt13__future_base12_Result_baseENS2_8_DeleterEEvENS1_12_Task_setterIS0_INS1_7_ResultIvEES3_EZNS1_11_Task_stateIZN3rtc4impl10ThreadPool8scheduleIZNSC_9Processor7enqueueIMNSC_13SctpTransportEFvvEJSt10shared_ptrISH_EEEEvOT_DpOT0_EUlvE_JEEESt6futureINSt13invoke_resultINSt5decayISM_E4typeEJDpNSU_ISO_E4typeEEE4typeEENSt6chrono10time_pointINS13_3_V212steady_clockENS13_8durationIlSt5ratioILl1ELl1000000000EEEEEESN_SQ_EUlvE_SaIiEFvvEE14_M_run_delayedESt8weak_ptrINS1_13_State_baseV2EEEUlvE_vEEE10_M_managerERSt9_Any_dataRKS1M_St18_Manager_operation
libdatachannel.so.0.21:_ZNSt17_Function_handlerIFSt10unique_ptrINSt13__future_base12_Result_baseENS2_8_DeleterEEvENS1_12_Task_setterIS0_INS1_7_ResultIvEES3_EZNS1_11_Task_stateIZN3rtc4impl10ThreadPool8scheduleIZNSC_9Processor7enqueueIMNSC_13SctpTransportEFvvEJSt10shared_ptrISH_EEEEvOT_DpOT0_EUlvE_JEEESt6futureINSt13invoke_resultINSt5decayISM_E4typeEJDpNSU_ISO_E4typeEEE4typeEENSt6chrono10time_pointINS13_3_V212steady_clockENS13_8durationIlSt5ratioILl1ELl1000000000EEEEEESN_SQ_EUlvE_SaIiEFvvEE14_M_run_delayedESt8weak_ptrINS1_13_State_baseV2EEEUlvE_vEEE9_M_invokeERKSt9_Any_data
libdatachannel.so.0.21:_ZNSt17_Function_handlerIFSt10unique_ptrINSt13__future_base12_Result_baseENS2_8_DeleterEEvENS1_12_Task_setterIS0_INS1_7_ResultIvEES3_EZNS1_11_Task_stateIZN3rtc4impl10ThreadPool8scheduleIZNSC_9Processor7enqueueIMNSC_13SctpTransportEFvvEJSt10shared_ptrISH_EEEEvOT_DpOT0_EUlvE_JEEESt6futureINSt13invoke_resultINSt5decayISM_E4typeEJDpNSU_ISO_E4typeEEE4typeEENSt6chrono10time_pointINS13_3_V212steady_clockENS13_8durationIlSt5ratioILl1ELl1000000000EEEEEESN_SQ_EUlvE_SaIiEFvvEE6_M_runEvEUlvE_vEEE10_M_managerERSt9_Any_dataRKS1J_St18_Manager_operation
libdatachannel.so.0.21:_ZNSt17_Function_handlerIFSt10unique_ptrINSt13__future_base12_Result_baseENS2_8_DeleterEEvENS1_12_Task_setterIS0_INS1_7_ResultIvEES3_EZNS1_11_Task_stateIZN3rtc4impl10ThreadPool8scheduleIZNSC_9Processor7enqueueIMNSC_13SctpTransportEFvvEJSt10shared_ptrISH_EEEEvOT_DpOT0_EUlvE_JEEESt6futureINSt13invoke_resultINSt5decayISM_E4typeEJDpNSU_ISO_E4typeEEE4typeEENSt6chrono10time_pointINS13_3_V212steady_clockENS13_8durationIlSt5ratioILl1ELl1000000000EEEEEESN_SQ_EUlvE_SaIiEFvvEE6_M_runEvEUlvE_vEEE9_M_invokeERKSt9_Any_data
libdatachannel.so.0.21:_ZNSt17_Function_handlerIFSt10unique_ptrINSt13__future_base12_Result_baseENS2_8_DeleterEEvENS1_12_Task_setterIS0_INS1_7_ResultIvEES3_EZNS1_11_Task_stateIZN3rtc4impl10ThreadPool8scheduleIZNSC_9Processor7enqueueIMNSC_14PeerConnectionEFvPNSB_21synchronized_callbackIJNSB_11DescriptionEEEESJ_EJSt10shared_ptrISH_ESL_SJ_EEEvOT_DpOT0_EUlvE_JEEESt6futureINSt13invoke_resultINSt5decayISQ_E4typeEJDpNSY_ISS_E4typeEEE4typeEENSt6chrono10time_pointINS17_3_V212steady_clockENS17_8durationIlSt5ratioILl1ELl1000000000EEEEEESR_SU_EUlvE_SaIiEFvvEE14_M_run_delayedESt8weak_ptrINS1_13_State_baseV2EEEUlvE_vEEE10_M_managerERSt9_Any_dataRKS1Q_St18_Manager_operation
libdatachannel.so.0.21:_ZNSt17_Function_handlerIFSt10unique_ptrINSt13__future_base12_Result_baseENS2_8_DeleterEEvENS1_12_Task_setterIS0_INS1_7_ResultIvEES3_EZNS1_11_Task_stateIZN3rtc4impl10ThreadPool8scheduleIZNSC_9Processor7enqueueIMNSC_14PeerConnectionEFvPNSB_21synchronized_callbackIJNSB_11DescriptionEEEESJ_EJSt10shared_ptrISH_ESL_SJ_EEEvOT_DpOT0_EUlvE_JEEESt6futureINSt13invoke_resultINSt5decayISQ_E4typeEJDpNSY_ISS_E4typeEEE4typeEENSt6chrono10time_pointINS17_3_V212steady_clockENS17_8durationIlSt5ratioILl1ELl1000000000EEEEEESR_SU_EUlvE_SaIiEFvvEE14_M_run_delayedESt8weak_ptrINS1_13_State_baseV2EEEUlvE_vEEE9_M_invokeERKSt9_Any_data
libdatachannel.so.0.21:_ZNSt17_Function_handlerIFSt10unique_ptrINSt13__future_base12_Result_baseENS2_8_DeleterEEvENS1_12_Task_setterIS0_INS1_7_ResultIvEES3_EZNS1_11_Task_stateIZN3rtc4impl10ThreadPool8scheduleIZNSC_9Processor7enqueueIMNSC_14PeerConnectionEFvPNSB_21synchronized_callbackIJNSB_11DescriptionEEEESJ_EJSt10shared_ptrISH_ESL_SJ_EEEvOT_DpOT0_EUlvE_JEEESt6futureINSt13invoke_resultINSt5decayISQ_E4typeEJDpNSY_ISS_E4typeEEE4typeEENSt6chrono10time_pointINS17_3_V212steady_clockENS17_8durationIlSt5ratioILl1ELl1000000000EEEEEESR_SU_EUlvE_SaIiEFvvEE6_M_runEvEUlvE_vEEE10_M_managerERSt9_Any_dataRKS1N_St18_Manager_operation
libdatachannel.so.0.21:_ZNSt17_Function_handlerIFSt10unique_ptrINSt13__future_base12_Result_baseENS2_8_DeleterEEvENS1_12_Task_setterIS0_INS1_7_ResultIvEES3_EZNS1_11_Task_stateIZN3rtc4impl10ThreadPool8scheduleIZNSC_9Processor7enqueueIMNSC_14PeerConnectionEFvPNSB_21synchronized_callbackIJNSB_11DescriptionEEEESJ_EJSt10shared_ptrISH_ESL_SJ_EEEvOT_DpOT0_EUlvE_JEEESt6futureINSt13invoke_resultINSt5decayISQ_E4typeEJDpNSY_ISS_E4typeEEE4typeEENSt6chrono10time_pointINS17_3_V212steady_clockENS17_8durationIlSt5ratioILl1ELl1000000000EEEEEESR_SU_EUlvE_SaIiEFvvEE6_M_runEvEUlvE_vEEE9_M_invokeERKSt9_Any_data
libdatachannel.so.0.21:_ZNSt17_Function_handlerIFSt10unique_ptrINSt13__future_base12_Result_baseENS2_8_DeleterEEvENS1_12_Task_setterIS0_INS1_7_ResultIvEES3_EZNS1_11_Task_stateIZN3rtc4impl10ThreadPool8scheduleIZNSC_9Processor7enqueueIMNSC_14PeerConnectionEFvPNSB_21synchronized_callbackIJNSB_14PeerConnection14GatheringStateEEEESK_EJSt10shared_ptrISH_ESM_RSK_EEEvOT_DpOT0_EUlvE_JEEESt6futureINSt13invoke_resultINSt5decayISS_E4typeEJDpNS10_ISU_E4typeEEE4typeEENSt6chrono10time_pointINS19_3_V212steady_clockENS19_8durationIlSt5ratioILl1ELl1000000000EEEEEEST_SW_EUlvE_SaIiEFvvEE14_M_run_delayedESt8weak_ptrINS1_13_State_baseV2EEEUlvE_vEEE10_M_managerERSt9_Any_dataRKS1S_St18_Manager_operation
libdatachannel.so.0.21:_ZNSt17_Function_handlerIFSt10unique_ptrINSt13__future_base12_Result_baseENS2_8_DeleterEEvENS1_12_Task_setterIS0_INS1_7_ResultIvEES3_EZNS1_11_Task_stateIZN3rtc4impl10ThreadPool8scheduleIZNSC_9Processor7enqueueIMNSC_14PeerConnectionEFvPNSB_21synchronized_callbackIJNSB_14PeerConnection14GatheringStateEEEESK_EJSt10shared_ptrISH_ESM_RSK_EEEvOT_DpOT0_EUlvE_JEEESt6futureINSt13invoke_resultINSt5decayISS_E4typeEJDpNS10_ISU_E4typeEEE4typeEENSt6chrono10time_pointINS19_3_V212steady_clockENS19_8durationIlSt5ratioILl1ELl1000000000EEEEEEST_SW_EUlvE_SaIiEFvvEE14_M_run_delayedESt8weak_ptrINS1_13_State_baseV2EEEUlvE_vEEE9_M_invokeERKSt9_Any_data
libdatachannel.so.0.21:_ZNSt17_Function_handlerIFSt10unique_ptrINSt13__future_base12_Result_baseENS2_8_DeleterEEvENS1_12_Task_setterIS0_INS1_7_ResultIvEES3_EZNS1_11_Task_stateIZN3rtc4impl10ThreadPool8scheduleIZNSC_9Processor7enqueueIMNSC_14PeerConnectionEFvPNSB_21synchronized_callbackIJNSB_14PeerConnection14GatheringStateEEEESK_EJSt10shared_ptrISH_ESM_RSK_EEEvOT_DpOT0_EUlvE_JEEESt6futureINSt13invoke_resultINSt5decayISS_E4typeEJDpNS10_ISU_E4typeEEE4typeEENSt6chrono10time_pointINS19_3_V212steady_clockENS19_8durationIlSt5ratioILl1ELl1000000000EEEEEEST_SW_EUlvE_SaIiEFvvEE6_M_runEvEUlvE_vEEE10_M_managerERSt9_Any_dataRKS1P_St18_Manager_operation
libdatachannel.so.0.21:_ZNSt17_Function_handlerIFSt10unique_ptrINSt13__future_base12_Result_baseENS2_8_DeleterEEvENS1_12_Task_setterIS0_INS1_7_ResultIvEES3_EZNS1_11_Task_stateIZN3rtc4impl10ThreadPool8scheduleIZNSC_9Processor7enqueueIMNSC_14PeerConnectionEFvPNSB_21synchronized_callbackIJNSB_14PeerConnection14GatheringStateEEEESK_EJSt10shared_ptrISH_ESM_RSK_EEEvOT_DpOT0_EUlvE_JEEESt6futureINSt13invoke_resultINSt5decayISS_E4typeEJDpNS10_ISU_E4typeEEE4typeEENSt6chrono10time_pointINS19_3_V212steady_clockENS19_8durationIlSt5ratioILl1ELl1000000000EEEEEEST_SW_EUlvE_SaIiEFvvEE6_M_runEvEUlvE_vEEE9_M_invokeERKSt9_Any_data
libdatachannel.so.0.21:_ZNSt17_Function_handlerIFSt10unique_ptrINSt13__future_base12_Result_baseENS2_8_DeleterEEvENS1_12_Task_setterIS0_INS1_7_ResultIvEES3_EZNS1_11_Task_stateIZN3rtc4impl10ThreadPool8scheduleIZNSC_9Processor7enqueueIMNSC_14PeerConnectionEFvPNSB_21synchronized_callbackIJNSB_14PeerConnection14SignalingStateEEEESK_EJSt10shared_ptrISH_ESM_RSK_EEEvOT_DpOT0_EUlvE_JEEESt6futureINSt13invoke_resultINSt5decayISS_E4typeEJDpNS10_ISU_E4typeEEE4typeEENSt6chrono10time_pointINS19_3_V212steady_clockENS19_8durationIlSt5ratioILl1ELl1000000000EEEEEEST_SW_EUlvE_SaIiEFvvEE14_M_run_delayedESt8weak_ptrINS1_13_State_baseV2EEEUlvE_vEEE10_M_managerERSt9_Any_dataRKS1S_St18_Manager_operation
libdatachannel.so.0.21:_ZNSt17_Function_handlerIFSt10unique_ptrINSt13__future_base12_Result_baseENS2_8_DeleterEEvENS1_12_Task_setterIS0_INS1_7_ResultIvEES3_EZNS1_11_Task_stateIZN3rtc4impl10ThreadPool8scheduleIZNSC_9Processor7enqueueIMNSC_14PeerConnectionEFvPNSB_21synchronized_callbackIJNSB_14PeerConnection14SignalingStateEEEESK_EJSt10shared_ptrISH_ESM_RSK_EEEvOT_DpOT0_EUlvE_JEEESt6futureINSt13invoke_resultINSt5decayISS_E4typeEJDpNS10_ISU_E4typeEEE4typeEENSt6chrono10time_pointINS19_3_V212steady_clockENS19_8durationIlSt5ratioILl1ELl1000000000EEEEEEST_SW_EUlvE_SaIiEFvvEE14_M_run_delayedESt8weak_ptrINS1_13_State_baseV2EEEUlvE_vEEE9_M_invokeERKSt9_Any_data
libdatachannel.so.0.21:_ZNSt17_Function_handlerIFSt10unique_ptrINSt13__future_base12_Result_baseENS2_8_DeleterEEvENS1_12_Task_setterIS0_INS1_7_ResultIvEES3_EZNS1_11_Task_stateIZN3rtc4impl10ThreadPool8scheduleIZNSC_9Processor7enqueueIMNSC_14PeerConnectionEFvPNSB_21synchronized_callbackIJNSB_14PeerConnection14SignalingStateEEEESK_EJSt10shared_ptrISH_ESM_RSK_EEEvOT_DpOT0_EUlvE_JEEESt6futureINSt13invoke_resultINSt5decayISS_E4typeEJDpNS10_ISU_E4typeEEE4typeEENSt6chrono10time_pointINS19_3_V212steady_clockENS19_8durationIlSt5ratioILl1ELl1000000000EEEEEEST_SW_EUlvE_SaIiEFvvEE6_M_runEvEUlvE_vEEE10_M_managerERSt9_Any_dataRKS1P_St18_Manager_operation
libdatachannel.so.0.21:_ZNSt17_Function_handlerIFSt10unique_ptrINSt13__future_base12_Result_baseENS2_8_DeleterEEvENS1_12_Task_setterIS0_INS1_7_ResultIvEES3_EZNS1_11_Task_stateIZN3rtc4impl10ThreadPool8scheduleIZNSC_9Processor7enqueueIMNSC_14PeerConnectionEFvPNSB_21synchronized_callbackIJNSB_14PeerConnection14SignalingStateEEEESK_EJSt10shared_ptrISH_ESM_RSK_EEEvOT_DpOT0_EUlvE_JEEESt6futureINSt13invoke_resultINSt5decayISS_E4typeEJDpNS10_ISU_E4typeEEE4typeEENSt6chrono10time_pointINS19_3_V212steady_clockENS19_8durationIlSt5ratioILl1ELl1000000000EEEEEEST_SW_EUlvE_SaIiEFvvEE6_M_runEvEUlvE_vEEE9_M_invokeERKSt9_Any_data
libdatachannel.so.0.21:_ZNSt17_Function_handlerIFSt10unique_ptrINSt13__future_base12_Result_baseENS2_8_DeleterEEvENS1_12_Task_setterIS0_INS1_7_ResultIvEES3_EZNS1_11_Task_stateIZN3rtc4impl10ThreadPool8scheduleIZNSC_9Processor7enqueueIMNSC_14PeerConnectionEFvPNSB_21synchronized_callbackIJNSB_14PeerConnection5StateEEEESK_EJSt10shared_ptrISH_ESM_RSK_EEEvOT_DpOT0_EUlvE_JEEESt6futureINSt13invoke_resultINSt5decayISS_E4typeEJDpNS10_ISU_E4typeEEE4typeEENSt6chrono10time_pointINS19_3_V212steady_clockENS19_8durationIlSt5ratioILl1ELl1000000000EEEEEEST_SW_EUlvE_SaIiEFvvEE14_M_run_delayedESt8weak_ptrINS1_13_State_baseV2EEEUlvE_vEEE10_M_managerERSt9_Any_dataRKS1S_St18_Manager_operation
libdatachannel.so.0.21:_ZNSt17_Function_handlerIFSt10unique_ptrINSt13__future_base12_Result_baseENS2_8_DeleterEEvENS1_12_Task_setterIS0_INS1_7_ResultIvEES3_EZNS1_11_Task_stateIZN3rtc4impl10ThreadPool8scheduleIZNSC_9Processor7enqueueIMNSC_14PeerConnectionEFvPNSB_21synchronized_callbackIJNSB_14PeerConnection5StateEEEESK_EJSt10shared_ptrISH_ESM_RSK_EEEvOT_DpOT0_EUlvE_JEEESt6futureINSt13invoke_resultINSt5decayISS_E4typeEJDpNS10_ISU_E4typeEEE4typeEENSt6chrono10time_pointINS19_3_V212steady_clockENS19_8durationIlSt5ratioILl1ELl1000000000EEEEEEST_SW_EUlvE_SaIiEFvvEE14_M_run_delayedESt8weak_ptrINS1_13_State_baseV2EEEUlvE_vEEE9_M_invokeERKSt9_Any_data
libdatachannel.so.0.21:_ZNSt17_Function_handlerIFSt10unique_ptrINSt13__future_base12_Result_baseENS2_8_DeleterEEvENS1_12_Task_setterIS0_INS1_7_ResultIvEES3_EZNS1_11_Task_stateIZN3rtc4impl10ThreadPool8scheduleIZNSC_9Processor7enqueueIMNSC_14PeerConnectionEFvPNSB_21synchronized_callbackIJNSB_14PeerConnection5StateEEEESK_EJSt10shared_ptrISH_ESM_RSK_EEEvOT_DpOT0_EUlvE_JEEESt6futureINSt13invoke_resultINSt5decayISS_E4typeEJDpNS10_ISU_E4typeEEE4typeEENSt6chrono10time_pointINS19_3_V212steady_clockENS19_8durationIlSt5ratioILl1ELl1000000000EEEEEEST_SW_EUlvE_SaIiEFvvEE6_M_runEvEUlvE_vEEE10_M_managerERSt9_Any_dataRKS1P_St18_Manager_operation
libdatachannel.so.0.21:_ZNSt17_Function_handlerIFSt10unique_ptrINSt13__future_base12_Result_baseENS2_8_DeleterEEvENS1_12_Task_setterIS0_INS1_7_ResultIvEES3_EZNS1_11_Task_stateIZN3rtc4impl10ThreadPool8scheduleIZNSC_9Processor7enqueueIMNSC_14PeerConnectionEFvPNSB_21synchronized_callbackIJNSB_14PeerConnection5StateEEEESK_EJSt10shared_ptrISH_ESM_RSK_EEEvOT_DpOT0_EUlvE_JEEESt6futureINSt13invoke_resultINSt5decayISS_E4typeEJDpNS10_ISU_E4typeEEE4typeEENSt6chrono10time_pointINS19_3_V212steady_clockENS19_8durationIlSt5ratioILl1ELl1000000000EEEEEEST_SW_EUlvE_SaIiEFvvEE6_M_runEvEUlvE_vEEE9_M_invokeERKSt9_Any_data
libdatachannel.so.0.21:_ZNSt17_Function_handlerIFSt10unique_ptrINSt13__future_base12_Result_baseENS2_8_DeleterEEvENS1_12_Task_setterIS0_INS1_7_ResultIvEES3_EZNS1_11_Task_stateIZN3rtc4impl10ThreadPool8scheduleIZNSC_9Processor7enqueueIMNSC_14PeerConnectionEFvPNSB_21synchronized_callbackIJNSB_14PeerConnection8IceStateEEEESK_EJSt10shared_ptrISH_ESM_RSK_EEEvOT_DpOT0_EUlvE_JEEESt6futureINSt13invoke_resultINSt5decayISS_E4typeEJDpNS10_ISU_E4typeEEE4typeEENSt6chrono10time_pointINS19_3_V212steady_clockENS19_8durationIlSt5ratioILl1ELl1000000000EEEEEEST_SW_EUlvE_SaIiEFvvEE14_M_run_delayedESt8weak_ptrINS1_13_State_baseV2EEEUlvE_vEEE10_M_managerERSt9_Any_dataRKS1S_St18_Manager_operation
libdatachannel.so.0.21:_ZNSt17_Function_handlerIFSt10unique_ptrINSt13__future_base12_Result_baseENS2_8_DeleterEEvENS1_12_Task_setterIS0_INS1_7_ResultIvEES3_EZNS1_11_Task_stateIZN3rtc4impl10ThreadPool8scheduleIZNSC_9Processor7enqueueIMNSC_14PeerConnectionEFvPNSB_21synchronized_callbackIJNSB_14PeerConnection8IceStateEEEESK_EJSt10shared_ptrISH_ESM_RSK_EEEvOT_DpOT0_EUlvE_JEEESt6futureINSt13invoke_resultINSt5decayISS_E4typeEJDpNS10_ISU_E4typeEEE4typeEENSt6chrono10time_pointINS19_3_V212steady_clockENS19_8durationIlSt5ratioILl1ELl1000000000EEEEEEST_SW_EUlvE_SaIiEFvvEE14_M_run_delayedESt8weak_ptrINS1_13_State_baseV2EEEUlvE_vEEE9_M_invokeERKSt9_Any_data
libdatachannel.so.0.21:_ZNSt17_Function_handlerIFSt10unique_ptrINSt13__future_base12_Result_baseENS2_8_DeleterEEvENS1_12_Task_setterIS0_INS1_7_ResultIvEES3_EZNS1_11_Task_stateIZN3rtc4impl10ThreadPool8scheduleIZNSC_9Processor7enqueueIMNSC_14PeerConnectionEFvPNSB_21synchronized_callbackIJNSB_14PeerConnection8IceStateEEEESK_EJSt10shared_ptrISH_ESM_RSK_EEEvOT_DpOT0_EUlvE_JEEESt6futureINSt13invoke_resultINSt5decayISS_E4typeEJDpNS10_ISU_E4typeEEE4typeEENSt6chrono10time_pointINS19_3_V212steady_clockENS19_8durationIlSt5ratioILl1ELl1000000000EEEEEEST_SW_EUlvE_SaIiEFvvEE6_M_runEvEUlvE_vEEE10_M_managerERSt9_Any_dataRKS1P_St18_Manager_operation
libdatachannel.so.0.21:_ZNSt17_Function_handlerIFSt10unique_ptrINSt13__future_base12_Result_baseENS2_8_DeleterEEvENS1_12_Task_setterIS0_INS1_7_ResultIvEES3_EZNS1_11_Task_stateIZN3rtc4impl10ThreadPool8scheduleIZNSC_9Processor7enqueueIMNSC_14PeerConnectionEFvPNSB_21synchronized_callbackIJNSB_14PeerConnection8IceStateEEEESK_EJSt10shared_ptrISH_ESM_RSK_EEEvOT_DpOT0_EUlvE_JEEESt6futureINSt13invoke_resultINSt5decayISS_E4typeEJDpNS10_ISU_E4typeEEE4typeEENSt6chrono10time_pointINS19_3_V212steady_clockENS19_8durationIlSt5ratioILl1ELl1000000000EEEEEEST_SW_EUlvE_SaIiEFvvEE6_M_runEvEUlvE_vEEE9_M_invokeERKSt9_Any_data
libdatachannel.so.0.21:_ZNSt17_Function_handlerIFSt10unique_ptrINSt13__future_base12_Result_baseENS2_8_DeleterEEvENS1_12_Task_setterIS0_INS1_7_ResultIvEES3_EZNS1_11_Task_stateIZN3rtc4impl10ThreadPool8scheduleIZNSC_9Processor7enqueueIMNSC_14PeerConnectionEFvPNSB_21synchronized_callbackIJNSB_9CandidateEEEESJ_EJSt10shared_ptrISH_ESL_SJ_EEEvOT_DpOT0_EUlvE_JEEESt6futureINSt13invoke_resultINSt5decayISQ_E4typeEJDpNSY_ISS_E4typeEEE4typeEENSt6chrono10time_pointINS17_3_V212steady_clockENS17_8durationIlSt5ratioILl1ELl1000000000EEEEEESR_SU_EUlvE_SaIiEFvvEE14_M_run_delayedESt8weak_ptrINS1_13_State_baseV2EEEUlvE_vEEE10_M_managerERSt9_Any_dataRKS1Q_St18_Manager_operation
libdatachannel.so.0.21:_ZNSt17_Function_handlerIFSt10unique_ptrINSt13__future_base12_Result_baseENS2_8_DeleterEEvENS1_12_Task_setterIS0_INS1_7_ResultIvEES3_EZNS1_11_Task_stateIZN3rtc4impl10ThreadPool8scheduleIZNSC_9Processor7enqueueIMNSC_14PeerConnectionEFvPNSB_21synchronized_callbackIJNSB_9CandidateEEEESJ_EJSt10shared_ptrISH_ESL_SJ_EEEvOT_DpOT0_EUlvE_JEEESt6futureINSt13invoke_resultINSt5decayISQ_E4typeEJDpNSY_ISS_E4typeEEE4typeEENSt6chrono10time_pointINS17_3_V212steady_clockENS17_8durationIlSt5ratioILl1ELl1000000000EEEEEESR_SU_EUlvE_SaIiEFvvEE14_M_run_delayedESt8weak_ptrINS1_13_State_baseV2EEEUlvE_vEEE9_M_invokeERKSt9_Any_data
libdatachannel.so.0.21:_ZNSt17_Function_handlerIFSt10unique_ptrINSt13__future_base12_Result_baseENS2_8_DeleterEEvENS1_12_Task_setterIS0_INS1_7_ResultIvEES3_EZNS1_11_Task_stateIZN3rtc4impl10ThreadPool8scheduleIZNSC_9Processor7enqueueIMNSC_14PeerConnectionEFvPNSB_21synchronized_callbackIJNSB_9CandidateEEEESJ_EJSt10shared_ptrISH_ESL_SJ_EEEvOT_DpOT0_EUlvE_JEEESt6futureINSt13invoke_resultINSt5decayISQ_E4typeEJDpNSY_ISS_E4typeEEE4typeEENSt6chrono10time_pointINS17_3_V212steady_clockENS17_8durationIlSt5ratioILl1ELl1000000000EEEEEESR_SU_EUlvE_SaIiEFvvEE6_M_runEvEUlvE_vEEE10_M_managerERSt9_Any_dataRKS1N_St18_Manager_operation
libdatachannel.so.0.21:_ZNSt17_Function_handlerIFSt10unique_ptrINSt13__future_base12_Result_baseENS2_8_DeleterEEvENS1_12_Task_setterIS0_INS1_7_ResultIvEES3_EZNS1_11_Task_stateIZN3rtc4impl10ThreadPool8scheduleIZNSC_9Processor7enqueueIMNSC_14PeerConnectionEFvPNSB_21synchronized_callbackIJNSB_9CandidateEEEESJ_EJSt10shared_ptrISH_ESL_SJ_EEEvOT_DpOT0_EUlvE_JEEESt6futureINSt13invoke_resultINSt5decayISQ_E4typeEJDpNSY_ISS_E4typeEEE4typeEENSt6chrono10time_pointINS17_3_V212steady_clockENS17_8durationIlSt5ratioILl1ELl1000000000EEEEEESR_SU_EUlvE_SaIiEFvvEE6_M_runEvEUlvE_vEEE9_M_invokeERKSt9_Any_data
libdatachannel.so.0.21:_ZNSt17_Function_handlerIFSt10unique_ptrINSt13__future_base12_Result_baseENS2_8_DeleterEEvENS1_12_Task_setterIS0_INS1_7_ResultIvEES3_EZNS1_11_Task_stateIZN3rtc4impl10ThreadPool8scheduleIZNSC_9Processor7enqueueIMNSC_14PeerConnectionEFvvEJSt10shared_ptrISH_EEEEvOT_DpOT0_EUlvE_JEEESt6futureINSt13invoke_resultINSt5decayISM_E4typeEJDpNSU_ISO_E4typeEEE4typeEENSt6chrono10time_pointINS13_3_V212steady_clockENS13_8durationIlSt5ratioILl1ELl1000000000EEEEEESN_SQ_EUlvE_SaIiEFvvEE14_M_run_delayedESt8weak_ptrINS1_13_State_baseV2EEEUlvE_vEEE10_M_managerERSt9_Any_dataRKS1M_St18_Manager_operation
libdatachannel.so.0.21:_ZNSt17_Function_handlerIFSt10unique_ptrINSt13__future_base12_Result_baseENS2_8_DeleterEEvENS1_12_Task_setterIS0_INS1_7_ResultIvEES3_EZNS1_11_Task_stateIZN3rtc4impl10ThreadPool8scheduleIZNSC_9Processor7enqueueIMNSC_14PeerConnectionEFvvEJSt10shared_ptrISH_EEEEvOT_DpOT0_EUlvE_JEEESt6futureINSt13invoke_resultINSt5decayISM_E4typeEJDpNSU_ISO_E4typeEEE4typeEENSt6chrono10time_pointINS13_3_V212steady_clockENS13_8durationIlSt5ratioILl1ELl1000000000EEEEEESN_SQ_EUlvE_SaIiEFvvEE14_M_run_delayedESt8weak_ptrINS1_13_State_baseV2EEEUlvE_vEEE9_M_invokeERKSt9_Any_data
libdatachannel.so.0.21:_ZNSt17_Function_handlerIFSt10unique_ptrINSt13__future_base12_Result_baseENS2_8_DeleterEEvENS1_12_Task_setterIS0_INS1_7_ResultIvEES3_EZNS1_11_Task_stateIZN3rtc4impl10ThreadPool8scheduleIZNSC_9Processor7enqueueIMNSC_14PeerConnectionEFvvEJSt10shared_ptrISH_EEEEvOT_DpOT0_EUlvE_JEEESt6futureINSt13invoke_resultINSt5decayISM_E4typeEJDpNSU_ISO_E4typeEEE4typeEENSt6chrono10time_pointINS13_3_V212steady_clockENS13_8durationIlSt5ratioILl1ELl1000000000EEEEEESN_SQ_EUlvE_SaIiEFvvEE6_M_runEvEUlvE_vEEE10_M_managerERSt9_Any_dataRKS1J_St18_Manager_operation
libdatachannel.so.0.21:_ZNSt17_Function_handlerIFSt10unique_ptrINSt13__future_base12_Result_baseENS2_8_DeleterEEvENS1_12_Task_setterIS0_INS1_7_ResultIvEES3_EZNS1_11_Task_stateIZN3rtc4impl10ThreadPool8scheduleIZNSC_9Processor7enqueueIMNSC_14PeerConnectionEFvvEJSt10shared_ptrISH_EEEEvOT_DpOT0_EUlvE_JEEESt6futureINSt13invoke_resultINSt5decayISM_E4typeEJDpNSU_ISO_E4typeEEE4typeEENSt6chrono10time_pointINS13_3_V212steady_clockENS13_8durationIlSt5ratioILl1ELl1000000000EEEEEESN_SQ_EUlvE_SaIiEFvvEE6_M_runEvEUlvE_vEEE9_M_invokeERKSt9_Any_data
libdatachannel.so.0.21:_ZNSt17_Function_handlerIFSt10unique_ptrINSt13__future_base12_Result_baseENS2_8_DeleterEEvENS1_13_State_baseV27_SetterIvNS6_19__exception_ptr_tagEEEE10_M_managerERSt9_Any_dataRKSB_St18_Manager_operation
libdatachannel.so.0.21:_ZNSt17_Function_handlerIFSt10unique_ptrINSt13__future_base12_Result_baseENS2_8_DeleterEEvENS1_13_State_baseV27_SetterIvNS6_19__exception_ptr_tagEEEE9_M_invokeERKSt9_Any_data
libdatachannel.so.0.21:_ZNSt17_Function_handlerIFSt10unique_ptrINSt13__future_base12_Result_baseENS2_8_DeleterEEvENS1_13_State_baseV27_SetterIvvEEE10_M_managerERSt9_Any_dataRKSA_St18_Manager_operation
libdatachannel.so.0.21:_ZNSt17_Function_handlerIFSt10unique_ptrINSt13__future_base12_Result_baseENS2_8_DeleterEEvENS1_13_State_baseV27_SetterIvvEEE9_M_invokeERKSt9_Any_data
libdatachannel.so.0.21:_ZNSt17_Function_handlerIFbRKNSt7__cxx1112basic_stringIcSt11char_traitsIcESaIcEEEEZN3rtc9weak_bindIMNS9_4impl14PeerConnectionEKFbS7_ESC_JRKSt12_PlaceholderILi1EEEEEDaOT_PT0_DpOT1_EUlDpOT_E_E10_M_managerERSt9_Any_dataRKSV_St18_Manager_operation
libdatachannel.so.0.21:_ZNSt17_Function_handlerIFbRKNSt7__cxx1112basic_stringIcSt11char_traitsIcESaIcEEEEZN3rtc9weak_bindIMNS9_4impl14PeerConnectionEKFbS7_ESC_JRKSt12_PlaceholderILi1EEEEEDaOT_PT0_DpOT1_EUlDpOT_E_E9_M_invokeERKSt9_Any_dataS7_
libdatachannel.so.0.21:_ZNSt17_Function_handlerIFbcENSt8__detail11_AnyMatcherINSt7__cxx1112regex_traitsIcEELb0ELb0ELb0EEEE10_M_managerERSt9_Any_dataRKS8_St18_Manager_operation
libdatachannel.so.0.21:_ZNSt17_Function_handlerIFbcENSt8__detail11_AnyMatcherINSt7__cxx1112regex_traitsIcEELb0ELb0ELb0EEEE9_M_invokeERKSt9_Any_dataOc
libdatachannel.so.0.21:_ZNSt17_Function_handlerIFbcENSt8__detail11_AnyMatcherINSt7__cxx1112regex_traitsIcEELb0ELb0ELb1EEEE10_M_managerERSt9_Any_dataRKS8_St18_Manager_operation
libdatachannel.so.0.21:_ZNSt17_Function_handlerIFbcENSt8__detail11_AnyMatcherINSt7__cxx1112regex_traitsIcEELb0ELb0ELb1EEEE9_M_invokeERKSt9_Any_dataOc
libdatachannel.so.0.21:_ZNSt17_Function_handlerIFbcENSt8__detail11_AnyMatcherINSt7__cxx1112regex_traitsIcEELb0ELb1ELb0EEEE10_M_managerERSt9_Any_dataRKS8_St18_Manager_operation
libdatachannel.so.0.21:_ZNSt17_Function_handlerIFbcENSt8__detail11_AnyMatcherINSt7__cxx1112regex_traitsIcEELb0ELb1ELb0EEEE9_M_invokeERKSt9_Any_dataOc
libdatachannel.so.0.21:_ZNSt17_Function_handlerIFbcENSt8__detail11_AnyMatcherINSt7__cxx1112regex_traitsIcEELb0ELb1ELb1EEEE10_M_managerERSt9_Any_dataRKS8_St18_Manager_operation
libdatachannel.so.0.21:_ZNSt17_Function_handlerIFbcENSt8__detail11_AnyMatcherINSt7__cxx1112regex_traitsIcEELb0ELb1ELb1EEEE9_M_invokeERKSt9_Any_dataOc
libdatachannel.so.0.21:_ZNSt17_Function_handlerIFbcENSt8__detail11_AnyMatcherINSt7__cxx1112regex_traitsIcEELb1ELb0ELb0EEEE10_M_managerERSt9_Any_dataRKS8_St18_Manager_operation
libdatachannel.so.0.21:_ZNSt17_Function_handlerIFbcENSt8__detail11_AnyMatcherINSt7__cxx1112regex_traitsIcEELb1ELb0ELb0EEEE9_M_invokeERKSt9_Any_dataOc
libdatachannel.so.0.21:_ZNSt17_Function_handlerIFbcENSt8__detail11_AnyMatcherINSt7__cxx1112regex_traitsIcEELb1ELb0ELb1EEEE10_M_managerERSt9_Any_dataRKS8_St18_Manager_operation
libdatachannel.so.0.21:_ZNSt17_Function_handlerIFbcENSt8__detail11_AnyMatcherINSt7__cxx1112regex_traitsIcEELb1ELb0ELb1EEEE9_M_invokeERKSt9_Any_dataOc
libdatachannel.so.0.21:_ZNSt17_Function_handlerIFbcENSt8__detail11_AnyMatcherINSt7__cxx1112regex_traitsIcEELb1ELb1ELb0EEEE10_M_managerERSt9_Any_dataRKS8_St18_Manager_operation
libdatachannel.so.0.21:_ZNSt17_Function_handlerIFbcENSt8__detail11_AnyMatcherINSt7__cxx1112regex_traitsIcEELb1ELb1ELb0EEEE9_M_invokeERKSt9_Any_dataOc
libdatachannel.so.0.21:_ZNSt17_Function_handlerIFbcENSt8__detail11_AnyMatcherINSt7__cxx1112regex_traitsIcEELb1ELb1ELb1EEEE10_M_managerERSt9_Any_dataRKS8_St18_Manager_operation
libdatachannel.so.0.21:_ZNSt17_Function_handlerIFbcENSt8__detail11_AnyMatcherINSt7__cxx1112regex_traitsIcEELb1ELb1ELb1EEEE9_M_invokeERKSt9_Any_dataOc
libdatachannel.so.0.21:_ZNSt17_Function_handlerIFbcENSt8__detail12_CharMatcherINSt7__cxx1112regex_traitsIcEELb0ELb0EEEE10_M_managerERSt9_Any_dataRKS8_St18_Manager_operation
libdatachannel.so.0.21:_ZNSt17_Function_handlerIFbcENSt8__detail12_CharMatcherINSt7__cxx1112regex_traitsIcEELb0ELb0EEEE9_M_invokeERKSt9_Any_dataOc
libdatachannel.so.0.21:_ZNSt17_Function_handlerIFbcENSt8__detail12_CharMatcherINSt7__cxx1112regex_traitsIcEELb0ELb1EEEE10_M_managerERSt9_Any_dataRKS8_St18_Manager_operation
libdatachannel.so.0.21:_ZNSt17_Function_handlerIFbcENSt8__detail12_CharMatcherINSt7__cxx1112regex_traitsIcEELb0ELb1EEEE9_M_invokeERKSt9_Any_dataOc
libdatachannel.so.0.21:_ZNSt17_Function_handlerIFbcENSt8__detail12_CharMatcherINSt7__cxx1112regex_traitsIcEELb1ELb0EEEE10_M_managerERSt9_Any_dataRKS8_St18_Manager_operation
libdatachannel.so.0.21:_ZNSt17_Function_handlerIFbcENSt8__detail12_CharMatcherINSt7__cxx1112regex_traitsIcEELb1ELb0EEEE9_M_invokeERKSt9_Any_dataOc
libdatachannel.so.0.21:_ZNSt17_Function_handlerIFbcENSt8__detail12_CharMatcherINSt7__cxx1112regex_traitsIcEELb1ELb1EEEE10_M_managerERSt9_Any_dataRKS8_St18_Manager_operation
libdatachannel.so.0.21:_ZNSt17_Function_handlerIFbcENSt8__detail12_CharMatcherINSt7__cxx1112regex_traitsIcEELb1ELb1EEEE9_M_invokeERKSt9_Any_dataOc
libdatachannel.so.0.21:_ZNSt17_Function_handlerIFbcENSt8__detail15_BracketMatcherINSt7__cxx1112regex_traitsIcEELb0ELb0EEEE10_M_managerERSt9_Any_dataRKS8_St18_Manager_operation
libdatachannel.so.0.21:_ZNSt17_Function_handlerIFbcENSt8__detail15_BracketMatcherINSt7__cxx1112regex_traitsIcEELb0ELb0EEEE9_M_invokeERKSt9_Any_dataOc
libdatachannel.so.0.21:_ZNSt17_Function_handlerIFbcENSt8__detail15_BracketMatcherINSt7__cxx1112regex_traitsIcEELb0ELb1EEEE10_M_managerERSt9_Any_dataRKS8_St18_Manager_operation
libdatachannel.so.0.21:_ZNSt17_Function_handlerIFbcENSt8__detail15_BracketMatcherINSt7__cxx1112regex_traitsIcEELb0ELb1EEEE9_M_invokeERKSt9_Any_dataOc
libdatachannel.so.0.21:_ZNSt17_Function_handlerIFbcENSt8__detail15_BracketMatcherINSt7__cxx1112regex_traitsIcEELb1ELb0EEEE10_M_managerERSt9_Any_dataRKS8_St18_Manager_operation
libdatachannel.so.0.21:_ZNSt17_Function_handlerIFbcENSt8__detail15_BracketMatcherINSt7__cxx1112regex_traitsIcEELb1ELb0EEEE9_M_invokeERKSt9_Any_dataOc
libdatachannel.so.0.21:_ZNSt17_Function_handlerIFbcENSt8__detail15_BracketMatcherINSt7__cxx1112regex_traitsIcEELb1ELb1EEEE10_M_managerERSt9_Any_dataRKS8_St18_Manager_operation
libdatachannel.so.0.21:_ZNSt17_Function_handlerIFbcENSt8__detail15_BracketMatcherINSt7__cxx1112regex_traitsIcEELb1ELb1EEEE9_M_invokeERKSt9_Any_dataOc
libdatachannel.so.0.21:_ZNSt17_Function_handlerIFmRKSt10shared_ptrIN3rtc4impl11DataChannelEEEZNS2_5QueueIS4_EC4EmSt8functionIS7_EEUlS6_E_E10_M_managerERSt9_Any_dataRKSE_St18_Manager_operation
libdatachannel.so.0.21:_ZNSt17_Function_handlerIFmRKSt10shared_ptrIN3rtc4impl11DataChannelEEEZNS2_5QueueIS4_EC4EmSt8functionIS7_EEUlS6_E_E9_M_invokeERKSt9_Any_dataS6_
libdatachannel.so.0.21:_ZNSt17_Function_handlerIFmRKSt10shared_ptrIN3rtc4impl5TrackEEEZNS2_5QueueIS4_EC4EmSt8functionIS7_EEUlS6_E_E10_M_managerERSt9_Any_dataRKSE_St18_Manager_operation
libdatachannel.so.0.21:_ZNSt17_Function_handlerIFmRKSt10shared_ptrIN3rtc4impl5TrackEEEZNS2_5QueueIS4_EC4EmSt8functionIS7_EEUlS6_E_E9_M_invokeERKSt9_Any_dataS6_
libdatachannel.so.0.21:_ZNSt17_Function_handlerIFmRKSt10shared_ptrIN3rtc7MessageEEEPS6_E10_M_managerERSt9_Any_dataRKS9_St18_Manager_operation
libdatachannel.so.0.21:_ZNSt17_Function_handlerIFmRKSt10shared_ptrIN3rtc7MessageEEEPS6_E9_M_invokeERKSt9_Any_dataS5_
libdatachannel.so.0.21:_ZNSt17_Function_handlerIFmRKSt10shared_ptrIN3rtc7MessageEEEZNS1_4impl5QueueIS3_EC4EmSt8functionIS6_EEUlS5_E_E10_M_managerERSt9_Any_dataRKSE_St18_Manager_operation
libdatachannel.so.0.21:_ZNSt17_Function_handlerIFmRKSt10shared_ptrIN3rtc7MessageEEEZNS1_4impl5QueueIS3_EC4EmSt8functionIS6_EEUlS5_E_E9_M_invokeERKSt9_Any_dataS5_
libdatachannel.so.0.21:_ZNSt17_Function_handlerIFmRKSt8functionIFvvEEEZN3rtc4impl5QueueIS2_EC4EmS0_IS5_EEUlS4_E_E10_M_managerERSt9_Any_dataRKSD_St18_Manager_operation
libdatachannel.so.0.21:_ZNSt17_Function_handlerIFmRKSt8functionIFvvEEEZN3rtc4impl5QueueIS2_EC4EmS0_IS5_EEUlS4_E_E9_M_invokeERKSt9_Any_dataS4_
libdatachannel.so.0.21:_ZNSt17_Function_handlerIFvN3rtc4impl11PollService5EventEESt5_BindIFMNS1_12TcpTransportEFvS3_EPS6_St12_PlaceholderILi1EEEEE10_M_managerERSt9_Any_dataRKSF_St18_Manager_operation
libdatachannel.so.0.21:_ZNSt17_Function_handlerIFvN3rtc4impl11PollService5EventEESt5_BindIFMNS1_12TcpTransportEFvS3_EPS6_St12_PlaceholderILi1EEEEE9_M_invokeERKSt9_Any_dataOS3_
libdatachannel.so.0.21:_ZNSt17_Function_handlerIFvRKN3rtc9CandidateEEZNS0_9weak_bindIMNS0_4impl14PeerConnectionEFvS1_ES7_JRKSt12_PlaceholderILi1EEEEEDaOT_PT0_DpOT1_EUlDpOT_E_E10_M_managerERSt9_Any_dataRKSQ_St18_Manager_operation
libdatachannel.so.0.21:_ZNSt17_Function_handlerIFvRKN3rtc9CandidateEEZNS0_9weak_bindIMNS0_4impl14PeerConnectionEFvS1_ES7_JRKSt12_PlaceholderILi1EEEEEDaOT_PT0_DpOT1_EUlDpOT_E_E9_M_invokeERKSt9_Any_dataS3_
libdatachannel.so.0.21:_ZNSt17_Function_handlerIFvSt10shared_ptrIN3rtc7MessageEEESt5_BindIFMNS1_4impl9TransportEFvS3_EPS7_St12_PlaceholderILi1EEEEE10_M_managerERSt9_Any_dataRKSG_St18_Manager_operation
libdatachannel.so.0.21:_ZNSt17_Function_handlerIFvSt10shared_ptrIN3rtc7MessageEEESt5_BindIFMNS1_4impl9TransportEFvS3_EPS7_St12_PlaceholderILi1EEEEE9_M_invokeERKSt9_Any_dataOS3_
libdatachannel.so.0.21:_ZNSt17_Function_handlerIFvSt10shared_ptrIN3rtc7MessageEEEZNS1_9weak_bindIMNS1_4impl14PeerConnectionEFvS3_ES7_JRKSt12_PlaceholderILi1EEEEEDaOT_PT0_DpOT1_EUlDpOT_E_E10_M_managerERSt9_Any_dataRKSQ_St18_Manager_operation
libdatachannel.so.0.21:_ZNSt17_Function_handlerIFvSt10shared_ptrIN3rtc7MessageEEEZNS1_9weak_bindIMNS1_4impl14PeerConnectionEFvS3_ES7_JRKSt12_PlaceholderILi1EEEEEDaOT_PT0_DpOT1_EUlDpOT_E_E9_M_invokeERKSt9_Any_dataOS3_
libdatachannel.so.0.21:_ZNSt17_Function_handlerIFvSt10shared_ptrIN3rtc7MessageEEEZNS1_9weak_bindIMNS1_4impl9WebSocketEFvS3_ES7_JRKSt12_PlaceholderILi1EEEEEDaOT_PT0_DpOT1_EUlDpOT_E_E10_M_managerERSt9_Any_dataRKSQ_St18_Manager_operation
libdatachannel.so.0.21:_ZNSt17_Function_handlerIFvSt10shared_ptrIN3rtc7MessageEEEZNS1_9weak_bindIMNS1_4impl9WebSocketEFvS3_ES7_JRKSt12_PlaceholderILi1EEEEEDaOT_PT0_DpOT1_EUlDpOT_E_E9_M_invokeERKSt9_Any_dataOS3_
libdatachannel.so.0.21:_ZNSt17_Function_handlerIFvmEZN3rtc9weak_bindIMNS1_4impl7ChannelEFvmENS3_9WebSocketEJRKSt12_PlaceholderILi1EEEEEDaOT_PT0_DpOT1_EUlDpOT_E_E10_M_managerERSt9_Any_dataRKSO_St18_Manager_operation
libdatachannel.so.0.21:_ZNSt17_Function_handlerIFvmEZN3rtc9weak_bindIMNS1_4impl7ChannelEFvmENS3_9WebSocketEJRKSt12_PlaceholderILi1EEEEEDaOT_PT0_DpOT1_EUlDpOT_E_E9_M_invokeERKSt9_Any_dataOm
libdatachannel.so.0.21:_ZNSt17_Function_handlerIFvtmEZN3rtc9weak_bindIMNS1_4impl14PeerConnectionEFvtmES4_JRKSt12_PlaceholderILi1EERKS7_ILi2EEEEEDaOT_PT0_DpOT1_EUlDpOT_E_E10_M_managerERSt9_Any_dataRKSQ_St18_Manager_operation
libdatachannel.so.0.21:_ZNSt17_Function_handlerIFvtmEZN3rtc9weak_bindIMNS1_4impl14PeerConnectionEFvtmES4_JRKSt12_PlaceholderILi1EERKS7_ILi2EEEEEDaOT_PT0_DpOT1_EUlDpOT_E_E9_M_invokeERKSt9_Any_dataOtOm
libdatachannel.so.0.21:_ZNSt17_Function_handlerIFvvESt5_BindIFMN3rtc4impl9ProcessorEFvvEPS4_EEE10_M_managerERSt9_Any_dataRKSB_St18_Manager_operation
libdatachannel.so.0.21:_ZNSt17_Function_handlerIFvvESt5_BindIFMN3rtc4impl9ProcessorEFvvEPS4_EEE9_M_invokeERKSt9_Any_data
libdatachannel.so.0.21:_ZNSt17_Function_handlerIFvvEZN3rtc4impl10ThreadPool8scheduleIMNS2_12TlsTransportEFvvEJSt10shared_ptrIS5_EEEESt6futureINSt13invoke_resultINSt5decayIT_E4typeEJDpNSC_IT0_E4typeEEE4typeEENSt6chrono10time_pointINSN_3_V212steady_clockENSN_8durationIlSt5ratioILl1ELl1000000000EEEEEEOSD_DpOSG_EUlvE0_E10_M_managerERSt9_Any_dataRKS11_St18_Manager_operation
libdatachannel.so.0.21:_ZNSt17_Function_handlerIFvvEZN3rtc4impl10ThreadPool8scheduleIMNS2_12TlsTransportEFvvEJSt10shared_ptrIS5_EEEESt6futureINSt13invoke_resultINSt5decayIT_E4typeEJDpNSC_IT0_E4typeEEE4typeEENSt6chrono10time_pointINSN_3_V212steady_clockENSN_8durationIlSt5ratioILl1ELl1000000000EEEEEEOSD_DpOSG_EUlvE0_E9_M_invokeERKSt9_Any_data
libdatachannel.so.0.21:_ZNSt17_Function_handlerIFvvEZN3rtc4impl10ThreadPool8scheduleIMNS2_13DtlsTransportEFvvEJSt10shared_ptrIS5_EEEESt6futureINSt13invoke_resultINSt5decayIT_E4typeEJDpNSC_IT0_E4typeEEE4typeEENSt6chrono10time_pointINSN_3_V212steady_clockENSN_8durationIlSt5ratioILl1ELl1000000000EEEEEEOSD_DpOSG_EUlvE0_E10_M_managerERSt9_Any_dataRKS11_St18_Manager_operation
libdatachannel.so.0.21:_ZNSt17_Function_handlerIFvvEZN3rtc4impl10ThreadPool8scheduleIMNS2_13DtlsTransportEFvvEJSt10shared_ptrIS5_EEEESt6futureINSt13invoke_resultINSt5decayIT_E4typeEJDpNSC_IT0_E4typeEEE4typeEENSt6chrono10time_pointINSN_3_V212steady_clockENSN_8durationIlSt5ratioILl1ELl1000000000EEEEEEOSD_DpOSG_EUlvE0_E9_M_invokeERKSt9_Any_data
libdatachannel.so.0.21:_ZNSt17_Function_handlerIFvvEZN3rtc4impl10ThreadPool8scheduleISt8functionIS0_EJEEESt6futureINSt13invoke_resultINSt5decayIT_E4typeEJDpNS9_IT0_E4typeEEE4typeEENSt6chrono10time_pointINSK_3_V212steady_clockENSK_8durationIlSt5ratioILl1ELl1000000000EEEEEEOSA_DpOSD_EUlvE0_E10_M_managerERSt9_Any_dataRKSY_St18_Manager_operation
libdatachannel.so.0.21:_ZNSt17_Function_handlerIFvvEZN3rtc4impl10ThreadPool8scheduleISt8functionIS0_EJEEESt6futureINSt13invoke_resultINSt5decayIT_E4typeEJDpNS9_IT0_E4typeEEE4typeEENSt6chrono10time_pointINSK_3_V212steady_clockENSK_8durationIlSt5ratioILl1ELl1000000000EEEEEEOSA_DpOSD_EUlvE0_E9_M_invokeERKSt9_Any_data
libdatachannel.so.0.21:_ZNSt17_Function_handlerIFvvEZN3rtc4impl10ThreadPool8scheduleIZNS1_9weak_bindIMNS2_12TcpTransportEFvvES6_JEEEDaOT_PT0_DpOT1_EUlDpOT_E_JEEESt6futureINSt13invoke_resultINSt5decayIS9_E4typeEJDpNSM_IT0_E4typeEEE4typeEENSt6chrono10time_pointINSW_3_V212steady_clockENSW_8durationIlSt5ratioILl1ELl1000000000EEEEEESA_DpOSP_EUlvE0_E10_M_managerERSt9_Any_dataRKS19_St18_Manager_operation
libdatachannel.so.0.21:_ZNSt17_Function_handlerIFvvEZN3rtc4impl10ThreadPool8scheduleIZNS1_9weak_bindIMNS2_12TcpTransportEFvvES6_JEEEDaOT_PT0_DpOT1_EUlDpOT_E_JEEESt6futureINSt13invoke_resultINSt5decayIS9_E4typeEJDpNSM_IT0_E4typeEEE4typeEENSt6chrono10time_pointINSW_3_V212steady_clockENSW_8durationIlSt5ratioILl1ELl1000000000EEEEEESA_DpOSP_EUlvE0_E9_M_invokeERKSt9_Any_data
libdatachannel.so.0.21:_ZNSt17_Function_handlerIFvvEZN3rtc4impl10ThreadPool8scheduleIZNS2_9Processor7enqueueIMNS2_13SctpTransportEFbvEJSt10shared_ptrIS7_EEEEvOT_DpOT0_EUlvE_JEEESt6futureINSt13invoke_resultINSt5decayISC_E4typeEJDpNSK_ISE_E4typeEEE4typeEENSt6chrono10time_pointINST_3_V212steady_clockENST_8durationIlSt5ratioILl1ELl1000000000EEEEEESD_SG_EUlvE0_E10_M_managerERSt9_Any_dataRKS14_St18_Manager_operation
libdatachannel.so.0.21:_ZNSt17_Function_handlerIFvvEZN3rtc4impl10ThreadPool8scheduleIZNS2_9Processor7enqueueIMNS2_13SctpTransportEFbvEJSt10shared_ptrIS7_EEEEvOT_DpOT0_EUlvE_JEEESt6futureINSt13invoke_resultINSt5decayISC_E4typeEJDpNSK_ISE_E4typeEEE4typeEENSt6chrono10time_pointINST_3_V212steady_clockENST_8durationIlSt5ratioILl1ELl1000000000EEEEEESD_SG_EUlvE0_E9_M_invokeERKSt9_Any_data
libdatachannel.so.0.21:_ZNSt17_Function_handlerIFvvEZN3rtc4impl10ThreadPool8scheduleIZNS2_9Processor7enqueueIMNS2_13SctpTransportEFvvEJSt10shared_ptrIS7_EEEEvOT_DpOT0_EUlvE_JEEESt6futureINSt13invoke_resultINSt5decayISC_E4typeEJDpNSK_ISE_E4typeEEE4typeEENSt6chrono10time_pointINST_3_V212steady_clockENST_8durationIlSt5ratioILl1ELl1000000000EEEEEESD_SG_EUlvE0_E10_M_managerERSt9_Any_dataRKS14_St18_Manager_operation
libdatachannel.so.0.21:_ZNSt17_Function_handlerIFvvEZN3rtc4impl10ThreadPool8scheduleIZNS2_9Processor7enqueueIMNS2_13SctpTransportEFvvEJSt10shared_ptrIS7_EEEEvOT_DpOT0_EUlvE_JEEESt6futureINSt13invoke_resultINSt5decayISC_E4typeEJDpNSK_ISE_E4typeEEE4typeEENSt6chrono10time_pointINST_3_V212steady_clockENST_8durationIlSt5ratioILl1ELl1000000000EEEEEESD_SG_EUlvE0_E9_M_invokeERKSt9_Any_data
libdatachannel.so.0.21:_ZNSt17_Function_handlerIFvvEZN3rtc4impl10ThreadPool8scheduleIZNS2_9Processor7enqueueIMNS2_14PeerConnectionEFvPNS1_21synchronized_callbackIJNS1_11DescriptionEEEES9_EJSt10shared_ptrIS7_ESB_S9_EEEvOT_DpOT0_EUlvE_JEEESt6futureINSt13invoke_resultINSt5decayISG_E4typeEJDpNSO_ISI_E4typeEEE4typeEENSt6chrono10time_pointINSX_3_V212steady_clockENSX_8durationIlSt5ratioILl1ELl1000000000EEEEEESH_SK_EUlvE0_E10_M_managerERSt9_Any_dataRKS18_St18_Manager_operation
libdatachannel.so.0.21:_ZNSt17_Function_handlerIFvvEZN3rtc4impl10ThreadPool8scheduleIZNS2_9Processor7enqueueIMNS2_14PeerConnectionEFvPNS1_21synchronized_callbackIJNS1_11DescriptionEEEES9_EJSt10shared_ptrIS7_ESB_S9_EEEvOT_DpOT0_EUlvE_JEEESt6futureINSt13invoke_resultINSt5decayISG_E4typeEJDpNSO_ISI_E4typeEEE4typeEENSt6chrono10time_pointINSX_3_V212steady_clockENSX_8durationIlSt5ratioILl1ELl1000000000EEEEEESH_SK_EUlvE0_E9_M_invokeERKSt9_Any_data
libdatachannel.so.0.21:_ZNSt17_Function_handlerIFvvEZN3rtc4impl10ThreadPool8scheduleIZNS2_9Processor7enqueueIMNS2_14PeerConnectionEFvPNS1_21synchronized_callbackIJNS1_14PeerConnection14GatheringStateEEEESA_EJSt10shared_ptrIS7_ESC_RSA_EEEvOT_DpOT0_EUlvE_JEEESt6futureINSt13invoke_resultINSt5decayISI_E4typeEJDpNSQ_ISK_E4typeEEE4typeEENSt6chrono10time_pointINSZ_3_V212steady_clockENSZ_8durationIlSt5ratioILl1ELl1000000000EEEEEESJ_SM_EUlvE0_E10_M_managerERSt9_Any_dataRKS1A_St18_Manager_operation
libdatachannel.so.0.21:_ZNSt17_Function_handlerIFvvEZN3rtc4impl10ThreadPool8scheduleIZNS2_9Processor7enqueueIMNS2_14PeerConnectionEFvPNS1_21synchronized_callbackIJNS1_14PeerConnection14GatheringStateEEEESA_EJSt10shared_ptrIS7_ESC_RSA_EEEvOT_DpOT0_EUlvE_JEEESt6futureINSt13invoke_resultINSt5decayISI_E4typeEJDpNSQ_ISK_E4typeEEE4typeEENSt6chrono10time_pointINSZ_3_V212steady_clockENSZ_8durationIlSt5ratioILl1ELl1000000000EEEEEESJ_SM_EUlvE0_E9_M_invokeERKSt9_Any_data
libdatachannel.so.0.21:_ZNSt17_Function_handlerIFvvEZN3rtc4impl10ThreadPool8scheduleIZNS2_9Processor7enqueueIMNS2_14PeerConnectionEFvPNS1_21synchronized_callbackIJNS1_14PeerConnection14SignalingStateEEEESA_EJSt10shared_ptrIS7_ESC_RSA_EEEvOT_DpOT0_EUlvE_JEEESt6futureINSt13invoke_resultINSt5decayISI_E4typeEJDpNSQ_ISK_E4typeEEE4typeEENSt6chrono10time_pointINSZ_3_V212steady_clockENSZ_8durationIlSt5ratioILl1ELl1000000000EEEEEESJ_SM_EUlvE0_E10_M_managerERSt9_Any_dataRKS1A_St18_Manager_operation
libdatachannel.so.0.21:_ZNSt17_Function_handlerIFvvEZN3rtc4impl10ThreadPool8scheduleIZNS2_9Processor7enqueueIMNS2_14PeerConnectionEFvPNS1_21synchronized_callbackIJNS1_14PeerConnection14SignalingStateEEEESA_EJSt10shared_ptrIS7_ESC_RSA_EEEvOT_DpOT0_EUlvE_JEEESt6futureINSt13invoke_resultINSt5decayISI_E4typeEJDpNSQ_ISK_E4typeEEE4typeEENSt6chrono10time_pointINSZ_3_V212steady_clockENSZ_8durationIlSt5ratioILl1ELl1000000000EEEEEESJ_SM_EUlvE0_E9_M_invokeERKSt9_Any_data
libdatachannel.so.0.21:_ZNSt17_Function_handlerIFvvEZN3rtc4impl10ThreadPool8scheduleIZNS2_9Processor7enqueueIMNS2_14PeerConnectionEFvPNS1_21synchronized_callbackIJNS1_14PeerConnection5StateEEEESA_EJSt10shared_ptrIS7_ESC_RSA_EEEvOT_DpOT0_EUlvE_JEEESt6futureINSt13invoke_resultINSt5decayISI_E4typeEJDpNSQ_ISK_E4typeEEE4typeEENSt6chrono10time_pointINSZ_3_V212steady_clockENSZ_8durationIlSt5ratioILl1ELl1000000000EEEEEESJ_SM_EUlvE0_E10_M_managerERSt9_Any_dataRKS1A_St18_Manager_operation
libdatachannel.so.0.21:_ZNSt17_Function_handlerIFvvEZN3rtc4impl10ThreadPool8scheduleIZNS2_9Processor7enqueueIMNS2_14PeerConnectionEFvPNS1_21synchronized_callbackIJNS1_14PeerConnection5StateEEEESA_EJSt10shared_ptrIS7_ESC_RSA_EEEvOT_DpOT0_EUlvE_JEEESt6futureINSt13invoke_resultINSt5decayISI_E4typeEJDpNSQ_ISK_E4typeEEE4typeEENSt6chrono10time_pointINSZ_3_V212steady_clockENSZ_8durationIlSt5ratioILl1ELl1000000000EEEEEESJ_SM_EUlvE0_E9_M_invokeERKSt9_Any_data
libdatachannel.so.0.21:_ZNSt17_Function_handlerIFvvEZN3rtc4impl10ThreadPool8scheduleIZNS2_9Processor7enqueueIMNS2_14PeerConnectionEFvPNS1_21synchronized_callbackIJNS1_14PeerConnection8IceStateEEEESA_EJSt10shared_ptrIS7_ESC_RSA_EEEvOT_DpOT0_EUlvE_JEEESt6futureINSt13invoke_resultINSt5decayISI_E4typeEJDpNSQ_ISK_E4typeEEE4typeEENSt6chrono10time_pointINSZ_3_V212steady_clockENSZ_8durationIlSt5ratioILl1ELl1000000000EEEEEESJ_SM_EUlvE0_E10_M_managerERSt9_Any_dataRKS1A_St18_Manager_operation
libdatachannel.so.0.21:_ZNSt17_Function_handlerIFvvEZN3rtc4impl10ThreadPool8scheduleIZNS2_9Processor7enqueueIMNS2_14PeerConnectionEFvPNS1_21synchronized_callbackIJNS1_14PeerConnection8IceStateEEEESA_EJSt10shared_ptrIS7_ESC_RSA_EEEvOT_DpOT0_EUlvE_JEEESt6futureINSt13invoke_resultINSt5decayISI_E4typeEJDpNSQ_ISK_E4typeEEE4typeEENSt6chrono10time_pointINSZ_3_V212steady_clockENSZ_8durationIlSt5ratioILl1ELl1000000000EEEEEESJ_SM_EUlvE0_E9_M_invokeERKSt9_Any_data
libdatachannel.so.0.21:_ZNSt17_Function_handlerIFvvEZN3rtc4impl10ThreadPool8scheduleIZNS2_9Processor7enqueueIMNS2_14PeerConnectionEFvPNS1_21synchronized_callbackIJNS1_9CandidateEEEES9_EJSt10shared_ptrIS7_ESB_S9_EEEvOT_DpOT0_EUlvE_JEEESt6futureINSt13invoke_resultINSt5decayISG_E4typeEJDpNSO_ISI_E4typeEEE4typeEENSt6chrono10time_pointINSX_3_V212steady_clockENSX_8durationIlSt5ratioILl1ELl1000000000EEEEEESH_SK_EUlvE0_E10_M_managerERSt9_Any_dataRKS18_St18_Manager_operation
libdatachannel.so.0.21:_ZNSt17_Function_handlerIFvvEZN3rtc4impl10ThreadPool8scheduleIZNS2_9Processor7enqueueIMNS2_14PeerConnectionEFvPNS1_21synchronized_callbackIJNS1_9CandidateEEEES9_EJSt10shared_ptrIS7_ESB_S9_EEEvOT_DpOT0_EUlvE_JEEESt6futureINSt13invoke_resultINSt5decayISG_E4typeEJDpNSO_ISI_E4typeEEE4typeEENSt6chrono10time_pointINSX_3_V212steady_clockENSX_8durationIlSt5ratioILl1ELl1000000000EEEEEESH_SK_EUlvE0_E9_M_invokeERKSt9_Any_data
libdatachannel.so.0.21:_ZNSt17_Function_handlerIFvvEZN3rtc4impl10ThreadPool8scheduleIZNS2_9Processor7enqueueIMNS2_14PeerConnectionEFvvEJSt10shared_ptrIS7_EEEEvOT_DpOT0_EUlvE_JEEESt6futureINSt13invoke_resultINSt5decayISC_E4typeEJDpNSK_ISE_E4typeEEE4typeEENSt6chrono10time_pointINST_3_V212steady_clockENST_8durationIlSt5ratioILl1ELl1000000000EEEEEESD_SG_EUlvE0_E10_M_managerERSt9_Any_dataRKS14_St18_Manager_operation
libdatachannel.so.0.21:_ZNSt17_Function_handlerIFvvEZN3rtc4impl10ThreadPool8scheduleIZNS2_9Processor7enqueueIMNS2_14PeerConnectionEFvvEJSt10shared_ptrIS7_EEEEvOT_DpOT0_EUlvE_JEEESt6futureINSt13invoke_resultINSt5decayISC_E4typeEJDpNSK_ISE_E4typeEEE4typeEENSt6chrono10time_pointINST_3_V212steady_clockENST_8durationIlSt5ratioILl1ELl1000000000EEEEEESD_SG_EUlvE0_E9_M_invokeERKSt9_Any_data
libdatachannel.so.0.21:_ZNSt17_Function_handlerIFvvEZN3rtc4impl9Processor7enqueueIMNS2_13SctpTransportEFbvEJSt10shared_ptrIS5_EEEEvOT_DpOT0_EUlvE_E10_M_managerERSt9_Any_dataRKSH_St18_Manager_operation
libdatachannel.so.0.21:_ZNSt17_Function_handlerIFvvEZN3rtc4impl9Processor7enqueueIMNS2_13SctpTransportEFbvEJSt10shared_ptrIS5_EEEEvOT_DpOT0_EUlvE_E9_M_invokeERKSt9_Any_data
libdatachannel.so.0.21:_ZNSt17_Function_handlerIFvvEZN3rtc4impl9Processor7enqueueIMNS2_13SctpTransportEFvvEJSt10shared_ptrIS5_EEEEvOT_DpOT0_EUlvE_E10_M_managerERSt9_Any_dataRKSH_St18_Manager_operation
libdatachannel.so.0.21:_ZNSt17_Function_handlerIFvvEZN3rtc4impl9Processor7enqueueIMNS2_13SctpTransportEFvvEJSt10shared_ptrIS5_EEEEvOT_DpOT0_EUlvE_E9_M_invokeERKSt9_Any_data
libdatachannel.so.0.21:_ZNSt17_Function_handlerIFvvEZN3rtc4impl9Processor7enqueueIMNS2_14PeerConnectionEFvPNS1_21synchronized_callbackIJNS1_11DescriptionEEEES7_EJSt10shared_ptrIS5_ES9_S7_EEEvOT_DpOT0_EUlvE_E10_M_managerERSt9_Any_dataRKSL_St18_Manager_operation
libdatachannel.so.0.21:_ZNSt17_Function_handlerIFvvEZN3rtc4impl9Processor7enqueueIMNS2_14PeerConnectionEFvPNS1_21synchronized_callbackIJNS1_11DescriptionEEEES7_EJSt10shared_ptrIS5_ES9_S7_EEEvOT_DpOT0_EUlvE_E9_M_invokeERKSt9_Any_data
libdatachannel.so.0.21:_ZNSt17_Function_handlerIFvvEZN3rtc4impl9Processor7enqueueIMNS2_14PeerConnectionEFvPNS1_21synchronized_callbackIJNS1_14PeerConnection14GatheringStateEEEES8_EJSt10shared_ptrIS5_ESA_RS8_EEEvOT_DpOT0_EUlvE_E10_M_managerERSt9_Any_dataRKSN_St18_Manager_operation
libdatachannel.so.0.21:_ZNSt17_Function_handlerIFvvEZN3rtc4impl9Processor7enqueueIMNS2_14PeerConnectionEFvPNS1_21synchronized_callbackIJNS1_14PeerConnection14GatheringStateEEEES8_EJSt10shared_ptrIS5_ESA_RS8_EEEvOT_DpOT0_EUlvE_E9_M_invokeERKSt9_Any_data
libdatachannel.so.0.21:_ZNSt17_Function_handlerIFvvEZN3rtc4impl9Processor7enqueueIMNS2_14PeerConnectionEFvPNS1_21synchronized_callbackIJNS1_14PeerConnection14SignalingStateEEEES8_EJSt10shared_ptrIS5_ESA_RS8_EEEvOT_DpOT0_EUlvE_E10_M_managerERSt9_Any_dataRKSN_St18_Manager_operation
libdatachannel.so.0.21:_ZNSt17_Function_handlerIFvvEZN3rtc4impl9Processor7enqueueIMNS2_14PeerConnectionEFvPNS1_21synchronized_callbackIJNS1_14PeerConnection14SignalingStateEEEES8_EJSt10shared_ptrIS5_ESA_RS8_EEEvOT_DpOT0_EUlvE_E9_M_invokeERKSt9_Any_data
libdatachannel.so.0.21:_ZNSt17_Function_handlerIFvvEZN3rtc4impl9Processor7enqueueIMNS2_14PeerConnectionEFvPNS1_21synchronized_callbackIJNS1_14PeerConnection5StateEEEES8_EJSt10shared_ptrIS5_ESA_RS8_EEEvOT_DpOT0_EUlvE_E10_M_managerERSt9_Any_dataRKSN_St18_Manager_operation
libdatachannel.so.0.21:_ZNSt17_Function_handlerIFvvEZN3rtc4impl9Processor7enqueueIMNS2_14PeerConnectionEFvPNS1_21synchronized_callbackIJNS1_14PeerConnection5StateEEEES8_EJSt10shared_ptrIS5_ESA_RS8_EEEvOT_DpOT0_EUlvE_E9_M_invokeERKSt9_Any_data
libdatachannel.so.0.21:_ZNSt17_Function_handlerIFvvEZN3rtc4impl9Processor7enqueueIMNS2_14PeerConnectionEFvPNS1_21synchronized_callbackIJNS1_14PeerConnection8IceStateEEEES8_EJSt10shared_ptrIS5_ESA_RS8_EEEvOT_DpOT0_EUlvE_E10_M_managerERSt9_Any_dataRKSN_St18_Manager_operation
libdatachannel.so.0.21:_ZNSt17_Function_handlerIFvvEZN3rtc4impl9Processor7enqueueIMNS2_14PeerConnectionEFvPNS1_21synchronized_callbackIJNS1_14PeerConnection8IceStateEEEES8_EJSt10shared_ptrIS5_ESA_RS8_EEEvOT_DpOT0_EUlvE_E9_M_invokeERKSt9_Any_data
libdatachannel.so.0.21:_ZNSt17_Function_handlerIFvvEZN3rtc4impl9Processor7enqueueIMNS2_14PeerConnectionEFvPNS1_21synchronized_callbackIJNS1_9CandidateEEEES7_EJSt10shared_ptrIS5_ES9_S7_EEEvOT_DpOT0_EUlvE_E10_M_managerERSt9_Any_dataRKSL_St18_Manager_operation
libdatachannel.so.0.21:_ZNSt17_Function_handlerIFvvEZN3rtc4impl9Processor7enqueueIMNS2_14PeerConnectionEFvPNS1_21synchronized_callbackIJNS1_9CandidateEEEES7_EJSt10shared_ptrIS5_ES9_S7_EEEvOT_DpOT0_EUlvE_E9_M_invokeERKSt9_Any_data
libdatachannel.so.0.21:_ZNSt17_Function_handlerIFvvEZN3rtc4impl9Processor7enqueueIMNS2_14PeerConnectionEFvvEJSt10shared_ptrIS5_EEEEvOT_DpOT0_EUlvE_E10_M_managerERSt9_Any_dataRKSH_St18_Manager_operation
libdatachannel.so.0.21:_ZNSt17_Function_handlerIFvvEZN3rtc4impl9Processor7enqueueIMNS2_14PeerConnectionEFvvEJSt10shared_ptrIS5_EEEEvOT_DpOT0_EUlvE_E9_M_invokeERKSt9_Any_data
libdatachannel.so.0.21:_ZNSt17_Function_handlerIFvvEZN3rtc9weak_bindIMNS1_4impl14PeerConnectionEFvSt8weak_ptrINS3_11DataChannelEEES4_JS7_EEEDaOT_PT0_DpOT1_EUlDpOT_E_E10_M_managerERSt9_Any_dataRKSM_St18_Manager_operation
libdatachannel.so.0.21:_ZNSt17_Function_handlerIFvvEZN3rtc9weak_bindIMNS1_4impl14PeerConnectionEFvSt8weak_ptrINS3_11DataChannelEEES4_JS7_EEEDaOT_PT0_DpOT1_EUlDpOT_E_E9_M_invokeERKSt9_Any_data
libdatachannel.so.0.21:_ZNSt6thread24_M_thread_deps_never_runEv
libdatachannel.so.0.21:_ZNSt8__detail8_ScannerIcE18_M_eat_escape_ecmaEv
libdatachannel.so.0.21:_ZNSt8__detail8_ScannerIcE19_M_eat_escape_posixEv
libdatachannel.so.0.21:_ZThn24_N3rtc11DataChannel4sendEPKSt4bytem
libdatachannel.so.0.21:_ZThn24_N3rtc11DataChannel4sendESt7variantIJSt6vectorISt4byteSaIS3_EENSt7__cxx1112basic_stringIcSt11char_traitsIcESaIcEEEEE
libdatachannel.so.0.21:_ZThn24_N3rtc11DataChannel5closeEv
libdatachannel.so.0.21:_ZThn24_N3rtc11DataChannelD0Ev
libdatachannel.so.0.21:_ZThn24_N3rtc11DataChannelD1Ev
libdatachannel.so.0.21:_ZThn24_N3rtc5Track4sendEPKSt4bytem
libdatachannel.so.0.21:_ZThn24_N3rtc5Track4sendESt7variantIJSt6vectorISt4byteSaIS3_EENSt7__cxx1112basic_stringIcSt11char_traitsIcESaIcEEEEE
libdatachannel.so.0.21:_ZThn24_N3rtc5Track5closeEv
libdatachannel.so.0.21:_ZThn24_N3rtc5TrackD0Ev
libdatachannel.so.0.21:_ZThn24_N3rtc5TrackD1Ev
libdatachannel.so.0.21:_ZThn24_N3rtc9WebSocket4sendEPKSt4bytem
libdatachannel.so.0.21:_ZThn24_N3rtc9WebSocket4sendESt7variantIJSt6vectorISt4byteSaIS3_EENSt7__cxx1112basic_stringIcSt11char_traitsIcESaIcEEEEE
libdatachannel.so.0.21:_ZThn24_N3rtc9WebSocket5closeEv
libdatachannel.so.0.21:_ZThn24_N3rtc9WebSocketD0Ev
libdatachannel.so.0.21:_ZThn24_N3rtc9WebSocketD1Ev
libdatachannel.so.0.21:_ZThn24_NK3rtc11DataChannel14maxMessageSizeEv
libdatachannel.so.0.21:_ZThn24_NK3rtc11DataChannel6isOpenEv
libdatachannel.so.0.21:_ZThn24_NK3rtc11DataChannel8isClosedEv
libdatachannel.so.0.21:_ZThn24_NK3rtc5Track14maxMessageSizeEv
libdatachannel.so.0.21:_ZThn24_NK3rtc5Track6isOpenEv
libdatachannel.so.0.21:_ZThn24_NK3rtc5Track8isClosedEv
libdatachannel.so.0.21:_ZThn24_NK3rtc9WebSocket14maxMessageSizeEv
libdatachannel.so.0.21:_ZThn24_NK3rtc9WebSocket6isOpenEv
libdatachannel.so.0.21:_ZThn24_NK3rtc9WebSocket8isClosedEv
libdatachannel.so.0.21:_ZZNSt9once_flag18_Prepare_executionC4IZSt9call_onceIMNSt13__future_base13_State_baseV2EFvPSt8functionIFSt10unique_ptrINS3_12_Result_baseENS7_8_DeleterEEvEEPbEJPS4_SC_SD_EEvRS_OT_DpOT0_EUlvE_EERSI_ENUlvE_4_FUNEv
libdatachannel.so.0.21:rtcAddRemoteCandidate
libdatachannel.so.0.21:rtcAddTrack
libdatachannel.so.0.21:rtcAddTrackEx
libdatachannel.so.0.21:rtcChainPliHandler
libdatachannel.so.0.21:rtcChainRtcpNackResponder
libdatachannel.so.0.21:rtcChainRtcpReceivingSession
libdatachannel.so.0.21:rtcChainRtcpSrReporter
libdatachannel.so.0.21:rtcCleanup
libdatachannel.so.0.21:rtcClose
libdatachannel.so.0.21:rtcClosePeerConnection
libdatachannel.so.0.21:rtcCreateDataChannel
libdatachannel.so.0.21:rtcCreateDataChannelEx
libdatachannel.so.0.21:rtcCreateOpaqueMessage
libdatachannel.so.0.21:rtcCreatePeerConnection
libdatachannel.so.0.21:rtcCreateWebSocket
libdatachannel.so.0.21:rtcCreateWebSocketEx
libdatachannel.so.0.21:rtcCreateWebSocketServer
libdatachannel.so.0.21:rtcDelete
libdatachannel.so.0.21:rtcDeleteDataChannel
libdatachannel.so.0.21:rtcDeleteOpaqueMessage
libdatachannel.so.0.21:rtcDeletePeerConnection
libdatachannel.so.0.21:rtcDeleteTrack
libdatachannel.so.0.21:rtcDeleteWebSocket
libdatachannel.so.0.21:rtcDeleteWebSocketServer
libdatachannel.so.0.21:rtcGetAvailableAmount
libdatachannel.so.0.21:rtcGetBufferedAmount
libdatachannel.so.0.21:rtcGetCNameForSsrc
libdatachannel.so.0.21:rtcGetCurrentTrackTimestamp
libdatachannel.so.0.21:rtcGetDataChannelLabel
libdatachannel.so.0.21:rtcGetDataChannelProtocol
libdatachannel.so.0.21:rtcGetDataChannelReliability
libdatachannel.so.0.21:rtcGetDataChannelStream
libdatachannel.so.0.21:rtcGetLastTrackSenderReportTimestamp
libdatachannel.so.0.21:rtcGetLocalAddress
libdatachannel.so.0.21:rtcGetLocalDescription
libdatachannel.so.0.21:rtcGetLocalDescriptionType
libdatachannel.so.0.21:rtcGetMaxDataChannelStream
libdatachannel.so.0.21:rtcGetRemoteAddress
libdatachannel.so.0.21:rtcGetRemoteDescription
libdatachannel.so.0.21:rtcGetRemoteDescriptionType
libdatachannel.so.0.21:rtcGetRemoteMaxMessageSize
libdatachannel.so.0.21:rtcGetSelectedCandidatePair
libdatachannel.so.0.21:rtcGetSsrcsForTrack
libdatachannel.so.0.21:rtcGetSsrcsForType
libdatachannel.so.0.21:rtcGetTrackDescription
libdatachannel.so.0.21:rtcGetTrackDirection
libdatachannel.so.0.21:rtcGetTrackMid
libdatachannel.so.0.21:rtcGetTrackPayloadTypesForCodec
libdatachannel.so.0.21:rtcGetUserPointer
libdatachannel.so.0.21:rtcGetWebSocketPath
libdatachannel.so.0.21:rtcGetWebSocketRemoteAddress
libdatachannel.so.0.21:rtcGetWebSocketServerPort
libdatachannel.so.0.21:rtcInitLogger
libdatachannel.so.0.21:rtcIsClosed
libdatachannel.so.0.21:rtcIsOpen
libdatachannel.so.0.21:rtcMaxMessageSize
libdatachannel.so.0.21:rtcPreload
libdatachannel.so.0.21:rtcReceiveMessage
libdatachannel.so.0.21:rtcRequestBitrate
libdatachannel.so.0.21:rtcRequestKeyframe
libdatachannel.so.0.21:rtcSendMessage
libdatachannel.so.0.21:rtcSetAACPacketizer
libdatachannel.so.0.21:rtcSetAV1Packetizer
libdatachannel.so.0.21:rtcSetAvailableCallback
libdatachannel.so.0.21:rtcSetBufferedAmountLowCallback
libdatachannel.so.0.21:rtcSetBufferedAmountLowThreshold
libdatachannel.so.0.21:rtcSetClosedCallback
libdatachannel.so.0.21:rtcSetDataChannelCallback
libdatachannel.so.0.21:rtcSetErrorCallback
libdatachannel.so.0.21:rtcSetGatheringStateChangeCallback
libdatachannel.so.0.21:rtcSetH264Packetizer
libdatachannel.so.0.21:rtcSetH265Packetizer
libdatachannel.so.0.21:rtcSetIceStateChangeCallback
libdatachannel.so.0.21:rtcSetLocalCandidateCallback
libdatachannel.so.0.21:rtcSetLocalDescription
libdatachannel.so.0.21:rtcSetLocalDescriptionCallback
libdatachannel.so.0.21:rtcSetMediaInterceptorCallback
libdatachannel.so.0.21:rtcSetMessageCallback
libdatachannel.so.0.21:rtcSetNeedsToSendRtcpSr
libdatachannel.so.0.21:rtcSetOpenCallback
libdatachannel.so.0.21:rtcSetOpusPacketizer
libdatachannel.so.0.21:rtcSetRemoteDescription
libdatachannel.so.0.21:rtcSetSctpSettings
libdatachannel.so.0.21:rtcSetSignalingStateChangeCallback
libdatachannel.so.0.21:rtcSetSsrcForType
libdatachannel.so.0.21:rtcSetStateChangeCallback
libdatachannel.so.0.21:rtcSetTrackCallback
libdatachannel.so.0.21:rtcSetTrackRtpTimestamp
libdatachannel.so.0.21:rtcSetUserPointer
libdatachannel.so.0.21:rtcTransformSecondsToTimestamp
libdatachannel.so.0.21:rtcTransformTimestampToSeconds
